

Microchip MPLAB XC8 Assembler V2.36 build 20220127204148 
                                                                                               Mon Jul 25 10:18:08 2022

Microchip MPLAB XC8 C Compiler v2.36 (Free license) build 20220127204148 Og1 
     1                           	processor	16F877A
     2                           	pagewidth 120
     3                           	opt	flic
     4                           	psect	strings,global,class=STRING,delta=2,noexec
     5                           	psect	cinit,global,class=CODE,merge=1,delta=2
     6                           	psect	bssCOMMON,global,class=COMMON,space=1,delta=1,noexec
     7                           	psect	bssBANK0,global,class=BANK0,space=1,delta=1,noexec
     8                           	psect	bssBANK1,global,class=BANK1,space=1,delta=1,noexec
     9                           	psect	cstackBANK1,global,class=BANK1,space=1,delta=1,noexec
    10                           	psect	cstackCOMMON,global,class=COMMON,space=1,delta=1,noexec
    11                           	psect	cstackBANK0,global,class=BANK0,space=1,delta=1,noexec
    12                           	psect	maintext,global,class=CODE,split=1,delta=2
    13                           	psect	text1,local,class=CODE,merge=1,delta=2,group=2
    14                           	psect	text2,local,class=CODE,merge=1,delta=2
    15                           	psect	text3,local,class=CODE,merge=1,delta=2,group=1
    16                           	psect	text4,local,class=CODE,merge=1,delta=2,group=2
    17                           	psect	text5,local,class=CODE,merge=1,delta=2,group=2
    18                           	psect	text6,local,class=CODE,merge=1,delta=2,group=2
    19                           	psect	text7,local,class=CODE,merge=1,delta=2,group=2
    20                           	psect	text8,local,class=CODE,merge=1,delta=2,group=2
    21                           	psect	text9,local,class=CODE,merge=1,delta=2,group=2
    22                           	psect	text10,local,class=CODE,merge=1,delta=2,group=2
    23                           	psect	text11,local,class=CODE,merge=1,delta=2
    24                           	psect	text12,local,class=CODE,merge=1,delta=2
    25                           	psect	text13,local,class=CODE,merge=1,delta=2,group=2
    26                           	psect	text14,local,class=CODE,merge=1,delta=2
    27                           	psect	text15,local,class=CODE,merge=1,delta=2
    28                           	psect	text16,local,class=CODE,merge=1,delta=2
    29                           	psect	text17,local,class=CODE,merge=1,delta=2
    30                           	psect	text18,local,class=CODE,merge=1,delta=2
    31                           	psect	text19,local,class=CODE,merge=1,delta=2
    32                           	psect	text20,local,class=CODE,merge=1,delta=2
    33                           	psect	text21,local,class=CODE,merge=1,delta=2
    34                           	psect	intentry,global,class=CODE,delta=2
    35                           	psect	text22,local,class=CODE,merge=1,delta=2
    36                           	psect	text23,local,class=CODE,merge=1,delta=2
    37                           	psect	text24,local,class=CODE,merge=1,delta=2
    38                           	psect	text25,local,class=CODE,merge=1,delta=2
    39                           	psect	text26,local,class=CODE,merge=1,delta=2
    40                           	psect	text27,local,class=CODE,merge=1,delta=2
    41                           	psect	config,global,abs,ovrld,class=CONFIG,space=4,delta=2,noexec
    42                           	dabs	1,0x7E,2
    43  0000                     
    44                           ; Version 2.20
    45                           ; Generated 12/02/2020 GMT
    46                           ; 
    47                           ; Copyright © 2020, Microchip Technology Inc. and its subsidiaries ("Microchip")
    48                           ; All rights reserved.
    49                           ; 
    50                           ; This software is developed by Microchip Technology Inc. and its subsidiaries ("Microch
      +                          ip").
    51                           ; 
    52                           ; Redistribution and use in source and binary forms, with or without modification, are
    53                           ; permitted provided that the following conditions are met:
    54                           ; 
    55                           ;     1. Redistributions of source code must retain the above copyright notice, this lis
      +                          t of
    56                           ;        conditions and the following disclaimer.
    57                           ; 
    58                           ;     2. Redistributions in binary form must reproduce the above copyright notice, this 
      +                          list
    59                           ;        of conditions and the following disclaimer in the documentation and/or other
    60                           ;        materials provided with the distribution.
    61                           ; 
    62                           ;     3. Microchip's name may not be used to endorse or promote products derived from th
      +                          is
    63                           ;        software without specific prior written permission.
    64                           ; 
    65                           ; THIS SOFTWARE IS PROVIDED BY MICROCHIP "AS IS" AND ANY EXPRESS OR IMPLIED WARRANTIES,
    66                           ; INCLUDING, BUT NOT LIMITED TO, THE IMPLIED WARRANTIES OF MERCHANTABILITY AND FITNESS F
      +                          OR
    67                           ; PURPOSE ARE DISCLAIMED.  IN NO EVENT SHALL MICROCHIP BE LIABLE FOR ANY DIRECT, INDIREC
      +                          T,
    68                           ; INCIDENTAL, SPECIAL, EXEMPLARY, OR CONSEQUENTIAL DAMAGES (INCLUDING BUT NOT LIMITED TO
    69                           ; PROCUREMENT OF SUBSTITUTE GOODS OR SERVICES; LOSS OF USE, DATA OR PROFITS; OR BUSINESS
    70                           ; INTERRUPTION) HOWSOEVER CAUSED AND ON ANY THEORY OF LIABILITY, WHETHER IN CONTRACT, ST
      +                          RICT
    71                           ; LIABILITY, OR TORT (INCLUDING NEGLIGENCE OR OTHERWISE) ARISING IN ANY WAY OUT OF THE U
      +                          SE OF
    72                           ; THIS SOFTWARE, EVEN IF ADVISED OF THE POSSIBILITY OF SUCH DAMAGE.
    73                           ; 
    74                           ; 
    75                           ; Code-generator required, PIC16F877A Definitions
    76                           ; 
    77                           ; SFR Addresses
    78  0000                     	;# 
    79  0001                     	;# 
    80  0002                     	;# 
    81  0003                     	;# 
    82  0004                     	;# 
    83  0005                     	;# 
    84  0006                     	;# 
    85  0007                     	;# 
    86  0008                     	;# 
    87  0009                     	;# 
    88  000A                     	;# 
    89  000B                     	;# 
    90  000C                     	;# 
    91  000D                     	;# 
    92  000E                     	;# 
    93  000E                     	;# 
    94  000F                     	;# 
    95  0010                     	;# 
    96  0011                     	;# 
    97  0012                     	;# 
    98  0013                     	;# 
    99  0014                     	;# 
   100  0015                     	;# 
   101  0015                     	;# 
   102  0016                     	;# 
   103  0017                     	;# 
   104  0018                     	;# 
   105  0019                     	;# 
   106  001A                     	;# 
   107  001B                     	;# 
   108  001B                     	;# 
   109  001C                     	;# 
   110  001D                     	;# 
   111  001E                     	;# 
   112  001F                     	;# 
   113  0081                     	;# 
   114  0085                     	;# 
   115  0086                     	;# 
   116  0087                     	;# 
   117  0088                     	;# 
   118  0089                     	;# 
   119  008C                     	;# 
   120  008D                     	;# 
   121  008E                     	;# 
   122  0091                     	;# 
   123  0092                     	;# 
   124  0093                     	;# 
   125  0094                     	;# 
   126  0098                     	;# 
   127  0099                     	;# 
   128  009C                     	;# 
   129  009D                     	;# 
   130  009E                     	;# 
   131  009F                     	;# 
   132  010C                     	;# 
   133  010D                     	;# 
   134  010E                     	;# 
   135  010F                     	;# 
   136  018C                     	;# 
   137  018D                     	;# 
   138  0000                     	;# 
   139  0001                     	;# 
   140  0002                     	;# 
   141  0003                     	;# 
   142  0004                     	;# 
   143  0005                     	;# 
   144  0006                     	;# 
   145  0007                     	;# 
   146  0008                     	;# 
   147  0009                     	;# 
   148  000A                     	;# 
   149  000B                     	;# 
   150  000C                     	;# 
   151  000D                     	;# 
   152  000E                     	;# 
   153  000E                     	;# 
   154  000F                     	;# 
   155  0010                     	;# 
   156  0011                     	;# 
   157  0012                     	;# 
   158  0013                     	;# 
   159  0014                     	;# 
   160  0015                     	;# 
   161  0015                     	;# 
   162  0016                     	;# 
   163  0017                     	;# 
   164  0018                     	;# 
   165  0019                     	;# 
   166  001A                     	;# 
   167  001B                     	;# 
   168  001B                     	;# 
   169  001C                     	;# 
   170  001D                     	;# 
   171  001E                     	;# 
   172  001F                     	;# 
   173  0081                     	;# 
   174  0085                     	;# 
   175  0086                     	;# 
   176  0087                     	;# 
   177  0088                     	;# 
   178  0089                     	;# 
   179  008C                     	;# 
   180  008D                     	;# 
   181  008E                     	;# 
   182  0091                     	;# 
   183  0092                     	;# 
   184  0093                     	;# 
   185  0094                     	;# 
   186  0098                     	;# 
   187  0099                     	;# 
   188  009C                     	;# 
   189  009D                     	;# 
   190  009E                     	;# 
   191  009F                     	;# 
   192  010C                     	;# 
   193  010D                     	;# 
   194  010E                     	;# 
   195  010F                     	;# 
   196  018C                     	;# 
   197  018D                     	;# 
   198                           
   199                           	psect	strings
   200  0800                     __pstrings:
   201  0800                     stringtab:
   202  0800                     __stringtab:
   203                           
   204                           ;	String table - string pointers are 1 byte each
   205  0800  1BFF               	btfsc	btemp+1,7
   206  0801  280A               	ljmp	stringcode
   207  0802  1383               	bcf	3,7
   208  0803  187F               	btfsc	btemp+1,0
   209  0804  1783               	bsf	3,7
   210  0805  0800               	movf	0,w
   211  0806  0A84               	incf	4,f
   212  0807  1903               	skipnz
   213  0808  0AFF               	incf	btemp+1,f
   214  0809  0008               	return
   215  080A                     stringcode:
   216  080A                     stringdir:
   217  080A  3008               	movlw	high stringdir
   218  080B  008A               	movwf	10
   219  080C  0804               	movf	4,w
   220  080D  0A84               	incf	4,f
   221  080E  0782               	addwf	2,f
   222  080F                     __stringbase:
   223  080F  3400               	retlw	0
   224  0810                     __end_of__stringtab:
   225  0810                     _dpowers:
   226  0810  3401               	retlw	1
   227  0811  3400               	retlw	0
   228  0812  340A               	retlw	10
   229  0813  3400               	retlw	0
   230  0814  3464               	retlw	100
   231  0815  3400               	retlw	0
   232  0816  34E8               	retlw	232
   233  0817  3403               	retlw	3
   234  0818  3410               	retlw	16
   235  0819  3427               	retlw	39
   236  081A                     __end_of_dpowers:
   237  0006                     _PORTBbits	set	6
   238  0008                     _PORTD	set	8
   239  0007                     _PORTC	set	7
   240  0006                     _PORTB	set	6
   241  0005                     _PORTA	set	5
   242  001E                     _ADRESH	set	30
   243  001F                     _ADCON0bits	set	31
   244  0008                     _PORTDbits	set	8
   245  000B                     _INTCONbits	set	11
   246  0010                     _T1CONbits	set	16
   247  000F                     _TMR1H	set	15
   248  000E                     _TMR1L	set	14
   249  000C                     _PIR1bits	set	12
   250  0060                     _TMR1IF	set	96
   251  003A                     _RC2	set	58
   252  0038                     _RC0	set	56
   253  003F                     _RC7	set	63
   254  003E                     _RC6	set	62
   255  003D                     _RC5	set	61
   256  003C                     _RC4	set	60
   257  0081                     _OPTION_REGbits	set	129
   258  009E                     _ADRESL	set	158
   259  009F                     _ADCON1bits	set	159
   260  008C                     _PIE1bits	set	140
   261  0081                     _OPTION_REG	set	129
   262  0088                     _TRISD	set	136
   263  0087                     _TRISC	set	135
   264  0086                     _TRISB	set	134
   265  0085                     _TRISA	set	133
   266  081A                     STR_11:
   267  081A  3445               	retlw	69	;'E'
   268  081B  3453               	retlw	83	;'S'
   269  081C  3454               	retlw	84	;'T'
   270  081D  344F               	retlw	79	;'O'
   271  081E  3451               	retlw	81	;'Q'
   272  081F  3455               	retlw	85	;'U'
   273  0820  3445               	retlw	69	;'E'
   274  0821  3420               	retlw	32	;' '
   275  0822  3445               	retlw	69	;'E'
   276  0823  344D               	retlw	77	;'M'
   277  0824  3420               	retlw	32	;' '
   278  0825  344E               	retlw	78	;'N'
   279  0826  3449               	retlw	73	;'I'
   280  0827  3456               	retlw	86	;'V'
   281  0828  3445               	retlw	69	;'E'
   282  0829  344C               	retlw	76	;'L'
   283  082A  3400               	retlw	0
   284  082B                     STR_8:
   285  082B  3452               	retlw	82	;'R'
   286  082C  3441               	retlw	65	;'A'
   287  082D  3443               	retlw	67	;'C'
   288  082E  3441               	retlw	65	;'A'
   289  082F  344F               	retlw	79	;'O'
   290  0830  3420               	retlw	32	;' '
   291  0831  3443               	retlw	67	;'C'
   292  0832  344F               	retlw	79	;'O'
   293  0833  344C               	retlw	76	;'L'
   294  0834  344F               	retlw	79	;'O'
   295  0835  3443               	retlw	67	;'C'
   296  0836  3441               	retlw	65	;'A'
   297  0837  3444               	retlw	68	;'D'
   298  0838  3441               	retlw	65	;'A'
   299  0839  342E               	retlw	46	;'.'
   300  083A  3400               	retlw	0
   301  083B                     STR_4:
   302  083B  3443               	retlw	67	;'C'
   303  083C  3461               	retlw	97	;'a'
   304  083D  346D               	retlw	109	;'m'
   305  083E  3462               	retlw	98	;'b'
   306  083F  3475               	retlw	117	;'u'
   307  0840  3463               	retlw	99	;'c'
   308  0841  3461               	retlw	97	;'a'
   309  0842  3420               	retlw	32	;' '
   310  0843  343D               	retlw	61	;'='
   311  0844  3420               	retlw	32	;' '
   312  0845  3425               	retlw	37	;'%'
   313  0846  3464               	retlw	100	;'d'
   314  0847  3425               	retlw	37	;'%'
   315  0848  3425               	retlw	37	;'%'
   316  0849  3400               	retlw	0
   317  084A                     STR_3:
   318  084A  3445               	retlw	69	;'E'
   319  084B  3473               	retlw	115	;'s'
   320  084C  3474               	retlw	116	;'t'
   321  084D  346F               	retlw	111	;'o'
   322  084E  3471               	retlw	113	;'q'
   323  084F  3475               	retlw	117	;'u'
   324  0850  3465               	retlw	101	;'e'
   325  0851  3420               	retlw	32	;' '
   326  0852  343D               	retlw	61	;'='
   327  0853  3420               	retlw	32	;' '
   328  0854  3425               	retlw	37	;'%'
   329  0855  3464               	retlw	100	;'d'
   330  0856  3425               	retlw	37	;'%'
   331  0857  3425               	retlw	37	;'%'
   332  0858  3400               	retlw	0
   333  0859                     STR_7:
   334  0859  3444               	retlw	68	;'D'
   335  085A  3445               	retlw	69	;'E'
   336  085B  3453               	retlw	83	;'S'
   337  085C  3450               	retlw	80	;'P'
   338  085D  3445               	retlw	69	;'E'
   339  085E  344A               	retlw	74	;'J'
   340  085F  3441               	retlw	65	;'A'
   341  0860  344E               	retlw	78	;'N'
   342  0861  3444               	retlw	68	;'D'
   343  0862  344F               	retlw	79	;'O'
   344  0863  342E               	retlw	46	;'.'
   345  0864  342E               	retlw	46	;'.'
   346  0865  342E               	retlw	46	;'.'
   347  0866  3400               	retlw	0
   348  0867                     STR_1:
   349  0867  3446               	retlw	70	;'F'
   350  0868  3455               	retlw	85	;'U'
   351  0869  344E               	retlw	78	;'N'
   352  086A  3443               	retlw	67	;'C'
   353  086B  3449               	retlw	73	;'I'
   354  086C  344F               	retlw	79	;'O'
   355  086D  344E               	retlw	78	;'N'
   356  086E  3441               	retlw	65	;'A'
   357  086F  344D               	retlw	77	;'M'
   358  0870  3445               	retlw	69	;'E'
   359  0871  344E               	retlw	78	;'N'
   360  0872  3454               	retlw	84	;'T'
   361  0873  344F               	retlw	79	;'O'
   362  0874  3400               	retlw	0
   363  0875                     STR_2:
   364  0875  3449               	retlw	73	;'I'
   365  0876  344E               	retlw	78	;'N'
   366  0877  3454               	retlw	84	;'T'
   367  0878  3445               	retlw	69	;'E'
   368  0879  3452               	retlw	82	;'R'
   369  087A  3452               	retlw	82	;'R'
   370  087B  344F               	retlw	79	;'O'
   371  087C  344D               	retlw	77	;'M'
   372  087D  3450               	retlw	80	;'P'
   373  087E  3449               	retlw	73	;'I'
   374  087F  3444               	retlw	68	;'D'
   375  0880  344F               	retlw	79	;'O'
   376  0881  3400               	retlw	0
   377  0882                     STR_12:
   378  0882  3442               	retlw	66	;'B'
   379  0883  3441               	retlw	65	;'A'
   380  0884  3449               	retlw	73	;'I'
   381  0885  3458               	retlw	88	;'X'
   382  0886  344F               	retlw	79	;'O'
   383  0887  342E               	retlw	46	;'.'
   384  0888  342E               	retlw	46	;'.'
   385  0889  342E               	retlw	46	;'.'
   386  088A  3400               	retlw	0
   387  083B                     
   388                           	psect	cinit
   389  0015                     start_initialization:	
   390                           ; #config settings
   391                           
   392  0015                     __initialization:
   393                           
   394                           ; Clear objects allocated to COMMON
   395  0015  01FC               	clrf	__pbssCOMMON& (0+127)
   396  0016  01FD               	clrf	(__pbssCOMMON+1)& (0+127)
   397                           
   398                           ; Clear objects allocated to BANK0
   399  0017  1283               	bcf	3,5	;RP0=0, select bank0
   400  0018  1303               	bcf	3,6	;RP1=0, select bank0
   401  0019  01E8               	clrf	__pbssBANK0& (0+127)
   402  001A  01E9               	clrf	(__pbssBANK0+1)& (0+127)
   403  001B  01EA               	clrf	(__pbssBANK0+2)& (0+127)
   404  001C  01EB               	clrf	(__pbssBANK0+3)& (0+127)
   405                           
   406                           ; Clear objects allocated to BANK1
   407  001D  1683               	bsf	3,5	;RP0=1, select bank1
   408  001E  1303               	bcf	3,6	;RP1=0, select bank1
   409  001F  01DC               	clrf	__pbssBANK1& (0+127)
   410  0020  01DD               	clrf	(__pbssBANK1+1)& (0+127)
   411  0021  01DE               	clrf	(__pbssBANK1+2)& (0+127)
   412  0022  01DF               	clrf	(__pbssBANK1+3)& (0+127)
   413  0023  01E0               	clrf	(__pbssBANK1+4)& (0+127)
   414  0024  01E1               	clrf	(__pbssBANK1+5)& (0+127)
   415  0025  01E2               	clrf	(__pbssBANK1+6)& (0+127)
   416  0026  01E3               	clrf	(__pbssBANK1+7)& (0+127)
   417  0027  01E4               	clrf	(__pbssBANK1+8)& (0+127)
   418  0028  01E5               	clrf	(__pbssBANK1+9)& (0+127)
   419  0029                     end_of_initialization:	
   420                           ;End of C runtime variable initialization code
   421                           
   422  0029                     __end_of__initialization:
   423  0029  0183               	clrf	3
   424  002A  120A  158A  2DA2   	ljmp	_main	;jump to C main() function
   425                           
   426                           	psect	bssCOMMON
   427  007C                     __pbssCOMMON:
   428  007C                     _conta:
   429  007C                     	ds	2
   430                           
   431                           	psect	bssBANK0
   432  0068                     __pbssBANK0:
   433  0068                     _interrupcao:
   434  0068                     	ds	2
   435  006A                     _aux_timer:
   436  006A                     	ds	2
   437                           
   438                           	psect	bssBANK1
   439  00DC                     __pbssBANK1:
   440  00DC                     _aux_aviso:
   441  00DC                     	ds	2
   442  00DE                     _aux_estoque:
   443  00DE                     	ds	2
   444  00E0                     _aux_cambuca:
   445  00E0                     	ds	2
   446  00E2                     _valor:
   447  00E2                     	ds	2
   448  00E4                     _aux_lcd:
   449  00E4                     	ds	2
   450                           
   451                           	psect	cstackBANK1
   452  00A0                     __pcstackBANK1:
   453  00A0                     ___fldiv@rem:
   454                           
   455                           ; 4 bytes @ 0x0
   456  00A0                     	ds	4
   457  00A4                     ___fldiv@sign:
   458                           
   459                           ; 1 bytes @ 0x4
   460  00A4                     	ds	1
   461  00A5                     ___fldiv@new_exp:
   462                           
   463                           ; 2 bytes @ 0x5
   464  00A5                     	ds	2
   465  00A7                     ___fldiv@grs:
   466                           
   467                           ; 4 bytes @ 0x7
   468  00A7                     	ds	4
   469  00AB                     ___fldiv@bexp:
   470                           
   471                           ; 1 bytes @ 0xB
   472  00AB                     	ds	1
   473  00AC                     ___fldiv@aexp:
   474                           
   475                           ; 1 bytes @ 0xC
   476  00AC                     	ds	1
   477  00AD                     ?___fltol:
   478  00AD                     ___fltol@f1:	
   479                           ; 4 bytes @ 0xD
   480                           
   481                           
   482                           ; 4 bytes @ 0xD
   483  00AD                     	ds	4
   484  00B1                     ??___fltol:
   485                           
   486                           ; 1 bytes @ 0x11
   487  00B1                     	ds	5
   488  00B6                     ?___awdiv:
   489  00B6                     ___awdiv@divisor:	
   490                           ; 2 bytes @ 0x16
   491                           
   492                           
   493                           ; 2 bytes @ 0x16
   494  00B6                     	ds	2
   495  00B8                     ___awdiv@dividend:
   496                           
   497                           ; 2 bytes @ 0x18
   498  00B8                     	ds	2
   499  00BA                     ___awdiv@counter:
   500                           
   501                           ; 1 bytes @ 0x1A
   502  00BA                     	ds	1
   503  00BB                     ___awdiv@sign:
   504                           
   505                           ; 1 bytes @ 0x1B
   506  00BB                     	ds	1
   507  00BC                     ___awdiv@quotient:
   508                           
   509                           ; 2 bytes @ 0x1C
   510  00BC                     	ds	2
   511  00BE                     ??_Lcd_Padrao:
   512                           
   513                           ; 1 bytes @ 0x1E
   514  00BE                     	ds	3
   515  00C1                     Lcd_Padrao@buffer:
   516                           
   517                           ; 20 bytes @ 0x21
   518  00C1                     	ds	20
   519  00D5                     Lcd_Padrao@nivel_cambuca:
   520                           
   521                           ; 2 bytes @ 0x35
   522  00D5                     	ds	2
   523  00D7                     Lcd_Padrao@nivel_estoque:
   524                           
   525                           ; 2 bytes @ 0x37
   526  00D7                     	ds	2
   527  00D9                     ??_main:
   528                           
   529                           ; 1 bytes @ 0x39
   530  00D9                     	ds	3
   531                           
   532                           	psect	cstackCOMMON
   533  0070                     __pcstackCOMMON:
   534  0070                     ?_Lcd_Port:
   535  0070                     ?_Lcd_Cmd:	
   536                           ; 1 bytes @ 0x0
   537                           
   538  0070                     ?_Lcd_Clear:	
   539                           ; 1 bytes @ 0x0
   540                           
   541  0070                     ?_Lcd_Init:	
   542                           ; 1 bytes @ 0x0
   543                           
   544  0070                     ?_Lcd_Write_Char:	
   545                           ; 1 bytes @ 0x0
   546                           
   547  0070                     ?_tes:	
   548                           ; 1 bytes @ 0x0
   549                           
   550  0070                     ?_Lcd_Padrao:	
   551                           ; 1 bytes @ 0x0
   552                           
   553  0070                     ?_main:	
   554                           ; 1 bytes @ 0x0
   555                           
   556  0070                     ?i1_Lcd_Port:	
   557                           ; 1 bytes @ 0x0
   558                           
   559  0070                     ??i1_Lcd_Port:	
   560                           ; 1 bytes @ 0x0
   561                           
   562  0070                     ?i1_Lcd_Cmd:	
   563                           ; 1 bytes @ 0x0
   564                           
   565  0070                     ?i1_Lcd_Clear:	
   566                           ; 1 bytes @ 0x0
   567                           
   568  0070                     ?i1_Lcd_Write_Char:	
   569                           ; 1 bytes @ 0x0
   570                           
   571  0070                     i1Lcd_Port@a:	
   572                           ; 1 bytes @ 0x0
   573                           
   574                           
   575                           ; 1 bytes @ 0x0
   576  0070                     	ds	1
   577  0071                     ??i1_Lcd_Cmd:
   578  0071                     ??i1_Lcd_Write_Char:	
   579                           ; 1 bytes @ 0x1
   580                           
   581                           
   582                           ; 1 bytes @ 0x1
   583  0071                     	ds	1
   584  0072                     i1Lcd_Write_Char@temp:
   585                           
   586                           ; 1 bytes @ 0x2
   587  0072                     	ds	1
   588  0073                     i1Lcd_Cmd@a:
   589  0073                     i1Lcd_Write_Char@y:	
   590                           ; 1 bytes @ 0x3
   591                           
   592                           
   593                           ; 1 bytes @ 0x3
   594  0073                     	ds	1
   595  0074                     ??i1_Lcd_Clear:
   596  0074                     ?i1_Lcd_Set_Cursor:	
   597                           ; 1 bytes @ 0x4
   598                           
   599  0074                     i1Lcd_Set_Cursor@b:	
   600                           ; 1 bytes @ 0x4
   601                           
   602  0074                     i1Lcd_Write_Char@a:	
   603                           ; 1 bytes @ 0x4
   604                           
   605                           
   606                           ; 1 bytes @ 0x4
   607  0074                     	ds	1
   608  0075                     ??i1_Lcd_Set_Cursor:
   609  0075                     ?i1_Lcd_Write_String:	
   610                           ; 1 bytes @ 0x5
   611                           
   612  0075                     i1Lcd_Write_String@a:	
   613                           ; 1 bytes @ 0x5
   614                           
   615                           
   616                           ; 2 bytes @ 0x5
   617  0075                     	ds	2
   618  0077                     ??i1_Lcd_Write_String:
   619  0077                     i1Lcd_Set_Cursor@a:	
   620                           ; 1 bytes @ 0x7
   621                           
   622                           
   623                           ; 1 bytes @ 0x7
   624  0077                     	ds	1
   625  0078                     i1Lcd_Set_Cursor@z:
   626                           
   627                           ; 1 bytes @ 0x8
   628  0078                     	ds	1
   629  0079                     i1Lcd_Set_Cursor@y:
   630                           
   631                           ; 1 bytes @ 0x9
   632  0079                     	ds	1
   633  007A                     i1Lcd_Set_Cursor@temp:
   634  007A                     i1Lcd_Write_String@i:	
   635                           ; 1 bytes @ 0xA
   636                           
   637                           
   638                           ; 2 bytes @ 0xA
   639  007A                     	ds	2
   640                           
   641                           	psect	cstackBANK0
   642  0020                     __pcstackBANK0:
   643  0020                     ??_tes:
   644                           
   645                           ; 1 bytes @ 0x0
   646  0020                     	ds	4
   647  0024                     ??_Lcd_Port:
   648  0024                     ?__Umul8_16:	
   649                           ; 1 bytes @ 0x4
   650                           
   651  0024                     ?___lwdiv:	
   652                           ; 2 bytes @ 0x4
   653                           
   654  0024                     ?___xxtofl:	
   655                           ; 2 bytes @ 0x4
   656                           
   657  0024                     Lcd_Port@a:	
   658                           ; 4 bytes @ 0x4
   659                           
   660  0024                     __Umul8_16@multiplicand:	
   661                           ; 1 bytes @ 0x4
   662                           
   663  0024                     ___lwdiv@divisor:	
   664                           ; 1 bytes @ 0x4
   665                           
   666  0024                     ___xxtofl@val:	
   667                           ; 2 bytes @ 0x4
   668                           
   669                           
   670                           ; 4 bytes @ 0x4
   671  0024                     	ds	1
   672  0025                     ??_Lcd_Cmd:
   673  0025                     ??_Lcd_Write_Char:	
   674                           ; 1 bytes @ 0x5
   675                           
   676                           
   677                           ; 1 bytes @ 0x5
   678  0025                     	ds	1
   679  0026                     ??__Umul8_16:
   680  0026                     Lcd_Write_Char@temp:	
   681                           ; 1 bytes @ 0x6
   682                           
   683  0026                     ___lwdiv@dividend:	
   684                           ; 1 bytes @ 0x6
   685                           
   686                           
   687                           ; 2 bytes @ 0x6
   688  0026                     	ds	1
   689  0027                     Lcd_Cmd@a:
   690  0027                     Lcd_Write_Char@y:	
   691                           ; 1 bytes @ 0x7
   692                           
   693                           
   694                           ; 1 bytes @ 0x7
   695  0027                     	ds	1
   696  0028                     ??_Lcd_Clear:
   697  0028                     ?_Lcd_Set_Cursor:	
   698                           ; 1 bytes @ 0x8
   699                           
   700  0028                     ??_Lcd_Init:	
   701                           ; 1 bytes @ 0x8
   702                           
   703  0028                     ??___lwdiv:	
   704                           ; 1 bytes @ 0x8
   705                           
   706  0028                     ??___xxtofl:	
   707                           ; 1 bytes @ 0x8
   708                           
   709  0028                     Lcd_Set_Cursor@b:	
   710                           ; 1 bytes @ 0x8
   711                           
   712  0028                     Lcd_Write_Char@a:	
   713                           ; 1 bytes @ 0x8
   714                           
   715  0028                     __Umul8_16@product:	
   716                           ; 1 bytes @ 0x8
   717                           
   718                           
   719                           ; 2 bytes @ 0x8
   720  0028                     	ds	1
   721  0029                     ??_Lcd_Set_Cursor:
   722  0029                     ?_Lcd_Write_String:	
   723                           ; 1 bytes @ 0x9
   724                           
   725  0029                     Lcd_Write_String@a:	
   726                           ; 1 bytes @ 0x9
   727                           
   728  0029                     ___lwdiv@quotient:	
   729                           ; 2 bytes @ 0x9
   730                           
   731                           
   732                           ; 2 bytes @ 0x9
   733  0029                     	ds	1
   734  002A                     __Umul8_16@word_mpld:
   735                           
   736                           ; 2 bytes @ 0xA
   737  002A                     	ds	1
   738  002B                     ??_Lcd_Write_String:
   739  002B                     Lcd_Set_Cursor@a:	
   740                           ; 1 bytes @ 0xB
   741                           
   742  002B                     ___lwdiv@counter:	
   743                           ; 1 bytes @ 0xB
   744                           
   745                           
   746                           ; 1 bytes @ 0xB
   747  002B                     	ds	1
   748  002C                     ?___lwmod:
   749  002C                     Lcd_Set_Cursor@z:	
   750                           ; 2 bytes @ 0xC
   751                           
   752  002C                     __Umul8_16@multiplier:	
   753                           ; 1 bytes @ 0xC
   754                           
   755  002C                     ___xxtofl@sign:	
   756                           ; 1 bytes @ 0xC
   757                           
   758  002C                     ___lwmod@divisor:	
   759                           ; 1 bytes @ 0xC
   760                           
   761                           
   762                           ; 2 bytes @ 0xC
   763  002C                     	ds	1
   764  002D                     Lcd_Set_Cursor@y:
   765  002D                     ___xxtofl@exp:	
   766                           ; 1 bytes @ 0xD
   767                           
   768                           
   769                           ; 1 bytes @ 0xD
   770  002D                     	ds	1
   771  002E                     Lcd_Set_Cursor@temp:
   772  002E                     Lcd_Write_String@i:	
   773                           ; 1 bytes @ 0xE
   774                           
   775  002E                     ___lwmod@dividend:	
   776                           ; 2 bytes @ 0xE
   777                           
   778  002E                     ___xxtofl@arg:	
   779                           ; 2 bytes @ 0xE
   780                           
   781                           
   782                           ; 4 bytes @ 0xE
   783  002E                     	ds	2
   784  0030                     ??___lwmod:
   785                           
   786                           ; 1 bytes @ 0x10
   787  0030                     	ds	1
   788  0031                     ___lwmod@counter:
   789                           
   790                           ; 1 bytes @ 0x11
   791  0031                     	ds	1
   792  0032                     ?_sprintf:
   793  0032                     ?_PesoEstoque:	
   794                           ; 2 bytes @ 0x12
   795                           
   796  0032                     ?_PesoCambuca:	
   797                           ; 4 bytes @ 0x12
   798                           
   799  0032                     sprintf@f:	
   800                           ; 4 bytes @ 0x12
   801                           
   802                           
   803                           ; 1 bytes @ 0x12
   804  0032                     	ds	3
   805  0035                     ??_sprintf:
   806                           
   807                           ; 1 bytes @ 0x15
   808  0035                     	ds	1
   809  0036                     ??_PesoEstoque:
   810  0036                     ??_PesoCambuca:	
   811                           ; 1 bytes @ 0x16
   812                           
   813                           
   814                           ; 1 bytes @ 0x16
   815  0036                     	ds	2
   816  0038                     sprintf@ap:
   817                           
   818                           ; 1 bytes @ 0x18
   819  0038                     	ds	1
   820  0039                     sprintf@flag:
   821                           
   822                           ; 1 bytes @ 0x19
   823  0039                     	ds	1
   824  003A                     sprintf@prec:
   825  003A                     PesoEstoque@peso:	
   826                           ; 1 bytes @ 0x1A
   827                           
   828  003A                     PesoCambuca@peso:	
   829                           ; 4 bytes @ 0x1A
   830                           
   831                           
   832                           ; 4 bytes @ 0x1A
   833  003A                     	ds	1
   834  003B                     sprintf@val:
   835                           
   836                           ; 2 bytes @ 0x1B
   837  003B                     	ds	2
   838  003D                     sprintf@sp:
   839                           
   840                           ; 1 bytes @ 0x1D
   841  003D                     	ds	1
   842  003E                     ?___flge:
   843  003E                     ?___flmul:	
   844                           ; 1 bit 
   845                           
   846  003E                     sprintf@c:	
   847                           ; 4 bytes @ 0x1E
   848                           
   849  003E                     ___flge@ff1:	
   850                           ; 1 bytes @ 0x1E
   851                           
   852  003E                     ___flmul@b:	
   853                           ; 4 bytes @ 0x1E
   854                           
   855                           
   856                           ; 4 bytes @ 0x1E
   857  003E                     	ds	4
   858  0042                     ___flge@ff2:
   859  0042                     ___flmul@a:	
   860                           ; 4 bytes @ 0x22
   861                           
   862                           
   863                           ; 4 bytes @ 0x22
   864  0042                     	ds	4
   865  0046                     ??___flge:
   866  0046                     ??___flmul:	
   867                           ; 1 bytes @ 0x26
   868                           
   869                           
   870                           ; 1 bytes @ 0x26
   871  0046                     	ds	5
   872  004B                     ___flmul@sign:
   873                           
   874                           ; 1 bytes @ 0x2B
   875  004B                     	ds	1
   876  004C                     ___flmul@grs:
   877                           
   878                           ; 4 bytes @ 0x2C
   879  004C                     	ds	4
   880  0050                     ___flmul@aexp:
   881                           
   882                           ; 1 bytes @ 0x30
   883  0050                     	ds	1
   884  0051                     ___flmul@bexp:
   885                           
   886                           ; 1 bytes @ 0x31
   887  0051                     	ds	1
   888  0052                     ___flmul@prod:
   889                           
   890                           ; 4 bytes @ 0x32
   891  0052                     	ds	4
   892  0056                     ___flmul@temp:
   893                           
   894                           ; 2 bytes @ 0x36
   895  0056                     	ds	2
   896  0058                     ?___fldiv:
   897  0058                     ___fldiv@a:	
   898                           ; 4 bytes @ 0x38
   899                           
   900                           
   901                           ; 4 bytes @ 0x38
   902  0058                     	ds	4
   903  005C                     ___fldiv@b:
   904                           
   905                           ; 4 bytes @ 0x3C
   906  005C                     	ds	4
   907  0060                     ??___fldiv:
   908                           
   909                           ; 1 bytes @ 0x40
   910  0060                     	ds	5
   911  0065                     ___fltol@sign1:
   912                           
   913                           ; 1 bytes @ 0x45
   914  0065                     	ds	1
   915  0066                     ___fltol@exp1:
   916                           
   917                           ; 1 bytes @ 0x46
   918  0066                     	ds	1
   919  0067                     ??___awdiv:
   920                           
   921                           ; 1 bytes @ 0x47
   922  0067                     	ds	1
   923                           
   924                           	psect	maintext
   925  0DA2                     __pmaintext:	
   926 ;;
   927 ;;Main: autosize = 0, tempsize = 3, incstack = 0, save=0
   928 ;;
   929 ;; *************** function _main *****************
   930 ;; Defined at:
   931 ;;		line 144 in file "newmain.c"
   932 ;; Parameters:    Size  Location     Type
   933 ;;		None
   934 ;; Auto vars:     Size  Location     Type
   935 ;;		None
   936 ;; Return value:  Size  Location     Type
   937 ;;                  1    wreg      void 
   938 ;; Registers used:
   939 ;;		wreg, fsr0l, fsr0h, status,2, status,0, btemp+1, pclath, cstack
   940 ;; Tracked objects:
   941 ;;		On entry : B00/0
   942 ;;		On exit  : 0/0
   943 ;;		Unchanged: 0/0
   944 ;; Data sizes:     COMMON   BANK0   BANK1   BANK3   BANK2
   945 ;;      Params:         0       0       0       0       0
   946 ;;      Locals:         0       0       0       0       0
   947 ;;      Temps:          0       0       3       0       0
   948 ;;      Totals:         0       0       3       0       0
   949 ;;Total ram usage:        3 bytes
   950 ;; Hardware stack levels required when called: 8
   951 ;; This function calls:
   952 ;;		_Lcd_Clear
   953 ;;		_Lcd_Init
   954 ;;		_Lcd_Padrao
   955 ;;		_Lcd_Set_Cursor
   956 ;;		_Lcd_Write_String
   957 ;;		_PesoCambuca
   958 ;;		_PesoEstoque
   959 ;;		___flge
   960 ;; This function is called by:
   961 ;;		Startup code after reset
   962 ;; This function uses a non-reentrant model
   963 ;;
   964                           
   965  0DA2                     _main:	
   966                           ;psect for function _main
   967                           
   968  0DA2                     l2913:	
   969                           ;incstack = 0
   970                           ; Regs used in _main: [wreg-fsr0h+status,2+status,0+btemp+1+pclath+cstack]
   971                           
   972                           
   973                           ;newmain.c: 145:     TRISA = 0b11111111;
   974  0DA2  30FF               	movlw	255
   975  0DA3  1683               	bsf	3,5	;RP0=1, select bank1
   976  0DA4  1303               	bcf	3,6	;RP1=0, select bank1
   977  0DA5  0085               	movwf	5	;volatile
   978                           
   979                           ;newmain.c: 146:     TRISB = 0b00000111;
   980  0DA6  3007               	movlw	7
   981  0DA7  0086               	movwf	6	;volatile
   982  0DA8                     l2915:
   983                           
   984                           ;newmain.c: 147:     TRISC = 0;
   985  0DA8  0187               	clrf	7	;volatile
   986  0DA9                     l2917:
   987                           
   988                           ;newmain.c: 148:     TRISD = 0;
   989  0DA9  0188               	clrf	8	;volatile
   990                           
   991                           ;newmain.c: 149:     OPTION_REG = 0b00111111;
   992  0DAA  303F               	movlw	63
   993  0DAB  0081               	movwf	1	;volatile
   994  0DAC                     l2919:
   995                           
   996                           ;newmain.c: 150:     PORTA = 0;
   997  0DAC  1283               	bcf	3,5	;RP0=0, select bank0
   998  0DAD  1303               	bcf	3,6	;RP1=0, select bank0
   999  0DAE  0185               	clrf	5	;volatile
  1000  0DAF                     l2921:
  1001                           
  1002                           ;newmain.c: 151:     PORTB = 0;
  1003  0DAF  0186               	clrf	6	;volatile
  1004  0DB0                     l2923:
  1005                           
  1006                           ;newmain.c: 152:     PORTC = 0;
  1007  0DB0  0187               	clrf	7	;volatile
  1008  0DB1                     l2925:
  1009                           
  1010                           ;newmain.c: 153:     PORTD = 0;
  1011  0DB1  0188               	clrf	8	;volatile
  1012  0DB2                     l2927:
  1013                           
  1014                           ;newmain.c: 155:     INTCONbits.GIE = 1;
  1015  0DB2  178B               	bsf	11,7	;volatile
  1016  0DB3                     l2929:
  1017                           
  1018                           ;newmain.c: 156:     INTCONbits.PEIE = 1;
  1019  0DB3  170B               	bsf	11,6	;volatile
  1020  0DB4                     l2931:
  1021                           
  1022                           ;newmain.c: 157:     INTCONbits.INTE=1;
  1023  0DB4  160B               	bsf	11,4	;volatile
  1024  0DB5                     l2933:
  1025                           
  1026                           ;newmain.c: 159:     PIE1bits.TMR1IE = 1;
  1027  0DB5  1683               	bsf	3,5	;RP0=1, select bank1
  1028  0DB6  1303               	bcf	3,6	;RP1=0, select bank1
  1029  0DB7  140C               	bsf	12,0	;volatile
  1030  0DB8                     l2935:
  1031                           
  1032                           ;newmain.c: 160:     T1CONbits.TMR1CS = 0;
  1033  0DB8  1283               	bcf	3,5	;RP0=0, select bank0
  1034  0DB9  1303               	bcf	3,6	;RP1=0, select bank0
  1035  0DBA  1090               	bcf	16,1	;volatile
  1036  0DBB                     l2937:
  1037                           
  1038                           ;newmain.c: 162:     T1CONbits.T1CKPS0 = 1;
  1039  0DBB  1610               	bsf	16,4	;volatile
  1040  0DBC                     l2939:
  1041                           
  1042                           ;newmain.c: 163:     T1CONbits.T1CKPS1 = 1;
  1043  0DBC  1690               	bsf	16,5	;volatile
  1044                           
  1045                           ;newmain.c: 169:     TMR1L = 0xDC;
  1046  0DBD  30DC               	movlw	220
  1047  0DBE  008E               	movwf	14	;volatile
  1048                           
  1049                           ;newmain.c: 170:     TMR1H = 0X0B;
  1050  0DBF  300B               	movlw	11
  1051  0DC0  008F               	movwf	15	;volatile
  1052  0DC1                     l2941:
  1053                           
  1054                           ;newmain.c: 173:     ADCON1bits.PCFG0 = 0;
  1055  0DC1  1683               	bsf	3,5	;RP0=1, select bank1
  1056  0DC2  1303               	bcf	3,6	;RP1=0, select bank1
  1057  0DC3  101F               	bcf	31,0	;volatile
  1058  0DC4                     l2943:
  1059                           
  1060                           ;newmain.c: 174:     ADCON1bits.PCFG1 = 0;
  1061  0DC4  109F               	bcf	31,1	;volatile
  1062  0DC5                     l2945:
  1063                           
  1064                           ;newmain.c: 175:     ADCON1bits.PCFG2 = 0;
  1065  0DC5  111F               	bcf	31,2	;volatile
  1066  0DC6                     l2947:
  1067                           
  1068                           ;newmain.c: 176:     ADCON1bits.PCFG3 = 0;
  1069  0DC6  119F               	bcf	31,3	;volatile
  1070  0DC7                     l2949:
  1071                           
  1072                           ;newmain.c: 178:  ADCON0bits.ADCS0 = 0;
  1073  0DC7  1283               	bcf	3,5	;RP0=0, select bank0
  1074  0DC8  1303               	bcf	3,6	;RP1=0, select bank0
  1075  0DC9  131F               	bcf	31,6	;volatile
  1076  0DCA                     l2951:
  1077                           
  1078                           ;newmain.c: 179:     ADCON0bits.ADCS1 = 0;
  1079  0DCA  139F               	bcf	31,7	;volatile
  1080  0DCB                     l2953:
  1081                           
  1082                           ;newmain.c: 181:     ADCON1bits.ADFM = 0;
  1083  0DCB  1683               	bsf	3,5	;RP0=1, select bank1
  1084  0DCC  1303               	bcf	3,6	;RP1=0, select bank1
  1085  0DCD  139F               	bcf	31,7	;volatile
  1086  0DCE                     l2955:
  1087                           
  1088                           ;newmain.c: 184:     ADRESL = 0x00;
  1089  0DCE  019E               	clrf	30	;volatile
  1090  0DCF                     l2957:
  1091                           
  1092                           ;newmain.c: 185:     ADRESH = 0x00;
  1093  0DCF  1283               	bcf	3,5	;RP0=0, select bank0
  1094  0DD0  1303               	bcf	3,6	;RP1=0, select bank0
  1095  0DD1  019E               	clrf	30	;volatile
  1096  0DD2                     l2959:
  1097                           
  1098                           ;newmain.c: 187:     ADCON0bits.ADON = 1;
  1099  0DD2  141F               	bsf	31,0	;volatile
  1100  0DD3                     l2961:
  1101                           
  1102                           ;newmain.c: 191:     OPTION_REGbits.PSA = 1;
  1103  0DD3  1683               	bsf	3,5	;RP0=1, select bank1
  1104  0DD4  1303               	bcf	3,6	;RP1=0, select bank1
  1105  0DD5  1581               	bsf	1,3	;volatile
  1106  0DD6                     l2963:
  1107                           
  1108                           ;newmain.c: 193:     OPTION_REGbits.PS0 = 1;
  1109  0DD6  1401               	bsf	1,0	;volatile
  1110  0DD7                     l2965:
  1111                           
  1112                           ;newmain.c: 194:     OPTION_REGbits.PS1 = 1;
  1113  0DD7  1481               	bsf	1,1	;volatile
  1114  0DD8                     l2967:
  1115                           
  1116                           ;newmain.c: 195:     OPTION_REGbits.PS2 = 1;
  1117  0DD8  1501               	bsf	1,2	;volatile
  1118  0DD9  0064               	clrwdt	;# 
  1119  0DDA                     l2969:
  1120                           
  1121                           ;newmain.c: 198:     Lcd_Init();
  1122  0DDA  120A  158A  2141  120A  158A  	fcall	_Lcd_Init
  1123  0DDF                     l2971:
  1124                           
  1125                           ;newmain.c: 199:     Lcd_Padrao();
  1126  0DDF  120A  158A  234B  120A  158A  	fcall	_Lcd_Padrao
  1127  0DE4                     l2973:
  1128                           
  1129                           ;newmain.c: 200:     PORTDbits.RD5 = 1;
  1130  0DE4  1283               	bcf	3,5	;RP0=0, select bank0
  1131  0DE5  1303               	bcf	3,6	;RP1=0, select bank0
  1132  0DE6  1688               	bsf	8,5	;volatile
  1133  0DE7                     l2975:
  1134                           
  1135                           ;newmain.c: 201:     interrupcao = 0;
  1136  0DE7  01E8               	clrf	_interrupcao
  1137  0DE8  01E9               	clrf	_interrupcao+1
  1138  0DE9                     l2977:
  1139                           
  1140                           ;newmain.c: 202:     aux_timer = 0;
  1141  0DE9  01EA               	clrf	_aux_timer
  1142  0DEA  01EB               	clrf	_aux_timer+1
  1143  0DEB                     l2979:
  1144                           
  1145                           ;newmain.c: 203:     aux_lcd = 0;
  1146  0DEB  1683               	bsf	3,5	;RP0=1, select bank1
  1147  0DEC  1303               	bcf	3,6	;RP1=0, select bank1
  1148  0DED  01E4               	clrf	_aux_lcd^(0+128)
  1149  0DEE  01E5               	clrf	(_aux_lcd+1)^(0+128)
  1150  0DEF                     l2981:
  1151                           
  1152                           ;newmain.c: 206:         Lcd_Padrao();
  1153  0DEF  120A  158A  234B  120A  158A  	fcall	_Lcd_Padrao
  1154  0DF4  0064               	clrwdt	;# 
  1155                           
  1156                           ;newmain.c: 208:         while(interrupcao == 1){
  1157  0DF5  2E01               	goto	l2987
  1158  0DF6                     l151:
  1159                           
  1160                           ;newmain.c: 209:             if(PORTBbits.RB1 == 0){
  1161  0DF6  1886               	btfsc	6,1	;volatile
  1162  0DF7  2DF9               	goto	u3791
  1163  0DF8  2DFA               	goto	u3790
  1164  0DF9                     u3791:
  1165  0DF9  2E01               	goto	l2987
  1166  0DFA                     u3790:
  1167  0DFA                     l2983:
  1168                           
  1169                           ;newmain.c: 210:                 interrupcao = 0;
  1170  0DFA  01E8               	clrf	_interrupcao
  1171  0DFB  01E9               	clrf	_interrupcao+1
  1172  0DFC                     l2985:
  1173                           
  1174                           ;newmain.c: 211:                 Lcd_Padrao();
  1175  0DFC  120A  158A  234B  120A  158A  	fcall	_Lcd_Padrao
  1176  0E01                     l2987:
  1177                           
  1178                           ;newmain.c: 208:         while(interrupcao == 1){
  1179  0E01  1283               	bcf	3,5	;RP0=0, select bank0
  1180  0E02  1303               	bcf	3,6	;RP1=0, select bank0
  1181  0E03  0368               	decf	_interrupcao,w
  1182  0E04  0469               	iorwf	_interrupcao+1,w
  1183  0E05  1903               	btfsc	3,2
  1184  0E06  2E08               	goto	u3801
  1185  0E07  2E09               	goto	u3800
  1186  0E08                     u3801:
  1187  0E08  2DF6               	goto	l151
  1188  0E09                     u3800:
  1189  0E09                     l153:
  1190                           
  1191                           ;newmain.c: 214:         if(PORTBbits.RB2 == 0){
  1192  0E09  1906               	btfsc	6,2	;volatile
  1193  0E0A  2E0C               	goto	u3811
  1194  0E0B  2E0D               	goto	u3810
  1195  0E0C                     u3811:
  1196  0E0C  2E70               	goto	l3015
  1197  0E0D                     u3810:
  1198  0E0D                     l2989:
  1199  0E0D  0064               	clrwdt	;# 
  1200  0E0E                     l2991:
  1201                           
  1202                           ;newmain.c: 216:             aux_timer = 0;
  1203  0E0E  1283               	bcf	3,5	;RP0=0, select bank0
  1204  0E0F  1303               	bcf	3,6	;RP1=0, select bank0
  1205  0E10  01EA               	clrf	_aux_timer
  1206  0E11  01EB               	clrf	_aux_timer+1
  1207  0E12                     l2993:
  1208                           
  1209                           ;newmain.c: 217:             Lcd_Clear();
  1210  0E12  160A  118A  24F7  120A  158A  	fcall	_Lcd_Clear
  1211  0E17                     l2995:
  1212                           
  1213                           ;newmain.c: 218:             Lcd_Set_Cursor(1,1);
  1214  0E17  1283               	bcf	3,5	;RP0=0, select bank0
  1215  0E18  1303               	bcf	3,6	;RP1=0, select bank0
  1216  0E19  01A8               	clrf	Lcd_Set_Cursor@b
  1217  0E1A  0AA8               	incf	Lcd_Set_Cursor@b,f
  1218  0E1B  3001               	movlw	1
  1219  0E1C  160A  118A  27A8  120A  158A  	fcall	_Lcd_Set_Cursor
  1220  0E21                     l2997:
  1221                           
  1222                           ;newmain.c: 219:             Lcd_Write_String("DESPEJANDO...");
  1223  0E21  304A               	movlw	(low ((STR_7-__stringbase)| (0+32768)))& (0+255)
  1224  0E22  1283               	bcf	3,5	;RP0=0, select bank0
  1225  0E23  1303               	bcf	3,6	;RP1=0, select bank0
  1226  0E24  00A9               	movwf	Lcd_Write_String@a
  1227  0E25  3080               	movlw	128
  1228  0E26  00AA               	movwf	Lcd_Write_String@a+1
  1229  0E27  160A  118A  266E  120A  158A  	fcall	_Lcd_Write_String
  1230  0E2C                     l2999:
  1231                           
  1232                           ;newmain.c: 220:             T1CONbits.TMR1ON = 1;
  1233  0E2C  1283               	bcf	3,5	;RP0=0, select bank0
  1234  0E2D  1303               	bcf	3,6	;RP1=0, select bank0
  1235  0E2E  1410               	bsf	16,0	;volatile
  1236                           
  1237                           ;newmain.c: 221:             while (aux_timer == 0 && interrupcao == 0){
  1238  0E2F  2E31               	goto	l3001
  1239  0E30                     l156:
  1240                           
  1241                           ;newmain.c: 222:                 PORTDbits.RD7 = 1;
  1242  0E30  1788               	bsf	8,7	;volatile
  1243  0E31                     l3001:
  1244                           
  1245                           ;newmain.c: 221:             while (aux_timer == 0 && interrupcao == 0){
  1246  0E31  086A               	movf	_aux_timer,w
  1247  0E32  046B               	iorwf	_aux_timer+1,w
  1248  0E33  1D03               	btfss	3,2
  1249  0E34  2E36               	goto	u3821
  1250  0E35  2E37               	goto	u3820
  1251  0E36                     u3821:
  1252  0E36  2E3D               	goto	l159
  1253  0E37                     u3820:
  1254  0E37                     l3003:
  1255  0E37  0868               	movf	_interrupcao,w
  1256  0E38  0469               	iorwf	_interrupcao+1,w
  1257  0E39  1903               	btfsc	3,2
  1258  0E3A  2E3C               	goto	u3831
  1259  0E3B  2E3D               	goto	u3830
  1260  0E3C                     u3831:
  1261  0E3C  2E30               	goto	l156
  1262  0E3D                     u3830:
  1263  0E3D                     l159:
  1264                           
  1265                           ;newmain.c: 224:             PORTDbits.RD7 = 0;
  1266  0E3D  1388               	bcf	8,7	;volatile
  1267  0E3E                     l3005:
  1268                           
  1269                           ;newmain.c: 225:             if(interrupcao == 0){
  1270  0E3E  0868               	movf	_interrupcao,w
  1271  0E3F  0469               	iorwf	_interrupcao+1,w
  1272  0E40  1D03               	btfss	3,2
  1273  0E41  2E43               	goto	u3841
  1274  0E42  2E44               	goto	u3840
  1275  0E43                     u3841:
  1276  0E43  2E70               	goto	l3015
  1277  0E44                     u3840:
  1278  0E44                     l3007:
  1279                           
  1280                           ;newmain.c: 226:                 Lcd_Clear();
  1281  0E44  160A  118A  24F7  120A  158A  	fcall	_Lcd_Clear
  1282                           
  1283                           ;newmain.c: 227:                 Lcd_Set_Cursor(1,1);
  1284  0E49  1283               	bcf	3,5	;RP0=0, select bank0
  1285  0E4A  1303               	bcf	3,6	;RP1=0, select bank0
  1286  0E4B  01A8               	clrf	Lcd_Set_Cursor@b
  1287  0E4C  0AA8               	incf	Lcd_Set_Cursor@b,f
  1288  0E4D  3001               	movlw	1
  1289  0E4E  160A  118A  27A8  120A  158A  	fcall	_Lcd_Set_Cursor
  1290  0E53                     l3009:
  1291                           
  1292                           ;newmain.c: 228:                 Lcd_Write_String("RACAO COLOCADA.");
  1293  0E53  301C               	movlw	(low ((STR_8-__stringbase)| (0+32768)))& (0+255)
  1294  0E54  1283               	bcf	3,5	;RP0=0, select bank0
  1295  0E55  1303               	bcf	3,6	;RP1=0, select bank0
  1296  0E56  00A9               	movwf	Lcd_Write_String@a
  1297  0E57  3080               	movlw	128
  1298  0E58  00AA               	movwf	Lcd_Write_String@a+1
  1299  0E59  160A  118A  266E  120A  158A  	fcall	_Lcd_Write_String
  1300  0E5E                     l3011:
  1301                           
  1302                           ;newmain.c: 229:                 _delay((unsigned long)((2000)*(4000000/4000.0)));
  1303  0E5E  300B               	movlw	11
  1304  0E5F  1683               	bsf	3,5	;RP0=1, select bank1
  1305  0E60  1303               	bcf	3,6	;RP1=0, select bank1
  1306  0E61  00DB               	movwf	(??_main^(0+128)+2)
  1307  0E62  3026               	movlw	38
  1308  0E63  00DA               	movwf	(??_main^(0+128)+1)
  1309  0E64  305D               	movlw	93
  1310  0E65  00D9               	movwf	??_main^(0+128)
  1311  0E66                     u3987:
  1312  0E66  0BD9               	decfsz	??_main^(0+128),f
  1313  0E67  2E66               	goto	u3987
  1314  0E68  0BDA               	decfsz	(??_main^(0+128)+1),f
  1315  0E69  2E66               	goto	u3987
  1316  0E6A  0BDB               	decfsz	(??_main^(0+128)+2),f
  1317  0E6B  2E66               	goto	u3987
  1318  0E6C                     l3013:
  1319                           
  1320                           ;newmain.c: 230:                 aux_lcd = 0;
  1321  0E6C  1683               	bsf	3,5	;RP0=1, select bank1
  1322  0E6D  1303               	bcf	3,6	;RP1=0, select bank1
  1323  0E6E  01E4               	clrf	_aux_lcd^(0+128)
  1324  0E6F  01E5               	clrf	(_aux_lcd+1)^(0+128)
  1325  0E70                     l3015:
  1326                           
  1327                           ;newmain.c: 233:         if(PesoCambuca()<= 51 && PesoEstoque() > 51 && interrupcao == 0
      +                          ){
  1328  0E70  3042               	movlw	66
  1329  0E71  1283               	bcf	3,5	;RP0=0, select bank0
  1330  0E72  00C1               	movwf	___flge@ff1+3
  1331  0E73  304C               	movlw	76
  1332  0E74  00C0               	movwf	___flge@ff1+2
  1333  0E75  3000               	movlw	0
  1334  0E76  00BF               	movwf	___flge@ff1+1
  1335  0E77  3000               	movlw	0
  1336  0E78  00BE               	movwf	___flge@ff1
  1337  0E79  160A  118A  26FA  120A  158A  	fcall	_PesoCambuca
  1338  0E7E  1283               	bcf	3,5	;RP0=0, select bank0
  1339  0E7F  1303               	bcf	3,6	;RP1=0, select bank0
  1340  0E80  0835               	movf	?_PesoCambuca+3,w
  1341  0E81  00C5               	movwf	___flge@ff2+3
  1342  0E82  0834               	movf	?_PesoCambuca+2,w
  1343  0E83  00C4               	movwf	___flge@ff2+2
  1344  0E84  0833               	movf	?_PesoCambuca+1,w
  1345  0E85  00C3               	movwf	___flge@ff2+1
  1346  0E86  0832               	movf	?_PesoCambuca,w
  1347  0E87  00C2               	movwf	___flge@ff2
  1348  0E88  120A  158A  22A7  120A  158A  	fcall	___flge
  1349  0E8D  1C03               	btfss	3,0
  1350  0E8E  2E90               	goto	u3851
  1351  0E8F  2E91               	goto	u3850
  1352  0E90                     u3851:
  1353  0E90  2F5A               	goto	l3047
  1354  0E91                     u3850:
  1355  0E91                     l3017:
  1356  0E91  3042               	movlw	66
  1357  0E92  1283               	bcf	3,5	;RP0=0, select bank0
  1358  0E93  1303               	bcf	3,6	;RP1=0, select bank0
  1359  0E94  00C1               	movwf	___flge@ff1+3
  1360  0E95  304C               	movlw	76
  1361  0E96  00C0               	movwf	___flge@ff1+2
  1362  0E97  3000               	movlw	0
  1363  0E98  00BF               	movwf	___flge@ff1+1
  1364  0E99  3000               	movlw	0
  1365  0E9A  00BE               	movwf	___flge@ff1
  1366  0E9B  160A  118A  2751  120A  158A  	fcall	_PesoEstoque
  1367  0EA0  1283               	bcf	3,5	;RP0=0, select bank0
  1368  0EA1  1303               	bcf	3,6	;RP1=0, select bank0
  1369  0EA2  0835               	movf	?_PesoEstoque+3,w
  1370  0EA3  00C5               	movwf	___flge@ff2+3
  1371  0EA4  0834               	movf	?_PesoEstoque+2,w
  1372  0EA5  00C4               	movwf	___flge@ff2+2
  1373  0EA6  0833               	movf	?_PesoEstoque+1,w
  1374  0EA7  00C3               	movwf	___flge@ff2+1
  1375  0EA8  0832               	movf	?_PesoEstoque,w
  1376  0EA9  00C2               	movwf	___flge@ff2
  1377  0EAA  120A  158A  22A7  120A  158A  	fcall	___flge
  1378  0EAF  1803               	btfsc	3,0
  1379  0EB0  2EB2               	goto	u3861
  1380  0EB1  2EB3               	goto	u3860
  1381  0EB2                     u3861:
  1382  0EB2  2F5A               	goto	l3047
  1383  0EB3                     u3860:
  1384  0EB3                     l3019:
  1385  0EB3  1283               	bcf	3,5	;RP0=0, select bank0
  1386  0EB4  1303               	bcf	3,6	;RP1=0, select bank0
  1387  0EB5  0868               	movf	_interrupcao,w
  1388  0EB6  0469               	iorwf	_interrupcao+1,w
  1389  0EB7  1D03               	btfss	3,2
  1390  0EB8  2EBA               	goto	u3871
  1391  0EB9  2EBB               	goto	u3870
  1392  0EBA                     u3871:
  1393  0EBA  2F5A               	goto	l3047
  1394  0EBB                     u3870:
  1395  0EBB                     l3021:
  1396  0EBB  0064               	clrwdt	;# 
  1397  0EBC                     l3023:
  1398                           
  1399                           ;newmain.c: 235:             Lcd_Clear();
  1400  0EBC  160A  118A  24F7  120A  158A  	fcall	_Lcd_Clear
  1401                           
  1402                           ;newmain.c: 236:             Lcd_Set_Cursor(1,1);
  1403  0EC1  1283               	bcf	3,5	;RP0=0, select bank0
  1404  0EC2  1303               	bcf	3,6	;RP1=0, select bank0
  1405  0EC3  01A8               	clrf	Lcd_Set_Cursor@b
  1406  0EC4  0AA8               	incf	Lcd_Set_Cursor@b,f
  1407  0EC5  3001               	movlw	1
  1408  0EC6  160A  118A  27A8  120A  158A  	fcall	_Lcd_Set_Cursor
  1409  0ECB                     l3025:
  1410                           
  1411                           ;newmain.c: 237:             Lcd_Write_String("DESPEJANDO...");
  1412  0ECB  304A               	movlw	(low ((STR_7-__stringbase)| (0+32768)))& (0+255)
  1413  0ECC  1283               	bcf	3,5	;RP0=0, select bank0
  1414  0ECD  1303               	bcf	3,6	;RP1=0, select bank0
  1415  0ECE  00A9               	movwf	Lcd_Write_String@a
  1416  0ECF  3080               	movlw	128
  1417  0ED0  00AA               	movwf	Lcd_Write_String@a+1
  1418  0ED1  160A  118A  266E  120A  158A  	fcall	_Lcd_Write_String
  1419                           
  1420                           ;newmain.c: 238:             while(PesoCambuca() < 204 && PesoEstoque() > 51){
  1421  0ED6  2EE2               	goto	l3031
  1422  0ED7                     l163:
  1423  0ED7  0064               	clrwdt	;# 
  1424  0ED8                     l3027:
  1425                           
  1426                           ;newmain.c: 240:                 if(interrupcao == 1){
  1427  0ED8  1283               	bcf	3,5	;RP0=0, select bank0
  1428  0ED9  1303               	bcf	3,6	;RP1=0, select bank0
  1429  0EDA  0368               	decf	_interrupcao,w
  1430  0EDB  0469               	iorwf	_interrupcao+1,w
  1431  0EDC  1D03               	btfss	3,2
  1432  0EDD  2EDF               	goto	u3881
  1433  0EDE  2EE0               	goto	u3880
  1434  0EDF                     u3881:
  1435  0EDF  2EE1               	goto	l164
  1436  0EE0                     u3880:
  1437  0EE0  2F24               	goto	l3035
  1438  0EE1                     l164:	
  1439                           ;newmain.c: 242:                 }
  1440                           
  1441                           
  1442                           ;newmain.c: 243:                 PORTDbits.RD7 = 1;
  1443  0EE1  1788               	bsf	8,7	;volatile
  1444  0EE2                     l3031:
  1445                           
  1446                           ;newmain.c: 238:             while(PesoCambuca() < 204 && PesoEstoque() > 51){
  1447  0EE2  160A  118A  26FA  120A  158A  	fcall	_PesoCambuca
  1448  0EE7  1283               	bcf	3,5	;RP0=0, select bank0
  1449  0EE8  1303               	bcf	3,6	;RP1=0, select bank0
  1450  0EE9  0835               	movf	?_PesoCambuca+3,w
  1451  0EEA  00C1               	movwf	___flge@ff1+3
  1452  0EEB  0834               	movf	?_PesoCambuca+2,w
  1453  0EEC  00C0               	movwf	___flge@ff1+2
  1454  0EED  0833               	movf	?_PesoCambuca+1,w
  1455  0EEE  00BF               	movwf	___flge@ff1+1
  1456  0EEF  0832               	movf	?_PesoCambuca,w
  1457  0EF0  00BE               	movwf	___flge@ff1
  1458  0EF1  3043               	movlw	67
  1459  0EF2  00C5               	movwf	___flge@ff2+3
  1460  0EF3  304C               	movlw	76
  1461  0EF4  00C4               	movwf	___flge@ff2+2
  1462  0EF5  3000               	movlw	0
  1463  0EF6  00C3               	movwf	___flge@ff2+1
  1464  0EF7  3000               	movlw	0
  1465  0EF8  00C2               	movwf	___flge@ff2
  1466  0EF9  120A  158A  22A7  120A  158A  	fcall	___flge
  1467  0EFE  1803               	btfsc	3,0
  1468  0EFF  2F01               	goto	u3891
  1469  0F00  2F02               	goto	u3890
  1470  0F01                     u3891:
  1471  0F01  2F24               	goto	l3035
  1472  0F02                     u3890:
  1473  0F02                     l3033:
  1474  0F02  3042               	movlw	66
  1475  0F03  1283               	bcf	3,5	;RP0=0, select bank0
  1476  0F04  1303               	bcf	3,6	;RP1=0, select bank0
  1477  0F05  00C1               	movwf	___flge@ff1+3
  1478  0F06  304C               	movlw	76
  1479  0F07  00C0               	movwf	___flge@ff1+2
  1480  0F08  3000               	movlw	0
  1481  0F09  00BF               	movwf	___flge@ff1+1
  1482  0F0A  3000               	movlw	0
  1483  0F0B  00BE               	movwf	___flge@ff1
  1484  0F0C  160A  118A  2751  120A  158A  	fcall	_PesoEstoque
  1485  0F11  1283               	bcf	3,5	;RP0=0, select bank0
  1486  0F12  1303               	bcf	3,6	;RP1=0, select bank0
  1487  0F13  0835               	movf	?_PesoEstoque+3,w
  1488  0F14  00C5               	movwf	___flge@ff2+3
  1489  0F15  0834               	movf	?_PesoEstoque+2,w
  1490  0F16  00C4               	movwf	___flge@ff2+2
  1491  0F17  0833               	movf	?_PesoEstoque+1,w
  1492  0F18  00C3               	movwf	___flge@ff2+1
  1493  0F19  0832               	movf	?_PesoEstoque,w
  1494  0F1A  00C2               	movwf	___flge@ff2
  1495  0F1B  120A  158A  22A7  120A  158A  	fcall	___flge
  1496  0F20  1C03               	btfss	3,0
  1497  0F21  2F23               	goto	u3901
  1498  0F22  2F24               	goto	u3900
  1499  0F23                     u3901:
  1500  0F23  2ED7               	goto	l163
  1501  0F24                     u3900:
  1502  0F24                     l3035:
  1503                           
  1504                           ;newmain.c: 245:             if(interrupcao == 0){
  1505  0F24  1283               	bcf	3,5	;RP0=0, select bank0
  1506  0F25  1303               	bcf	3,6	;RP1=0, select bank0
  1507  0F26  0868               	movf	_interrupcao,w
  1508  0F27  0469               	iorwf	_interrupcao+1,w
  1509  0F28  1D03               	btfss	3,2
  1510  0F29  2F2B               	goto	u3911
  1511  0F2A  2F2C               	goto	u3910
  1512  0F2B                     u3911:
  1513  0F2B  2F5A               	goto	l3047
  1514  0F2C                     u3910:
  1515  0F2C                     l3037:
  1516                           
  1517                           ;newmain.c: 246:                 PORTDbits.RD7 = 0;
  1518  0F2C  1388               	bcf	8,7	;volatile
  1519  0F2D                     l3039:
  1520                           
  1521                           ;newmain.c: 247:                 Lcd_Clear();
  1522  0F2D  160A  118A  24F7  120A  158A  	fcall	_Lcd_Clear
  1523                           
  1524                           ;newmain.c: 248:                 Lcd_Set_Cursor(1,1);
  1525  0F32  1283               	bcf	3,5	;RP0=0, select bank0
  1526  0F33  1303               	bcf	3,6	;RP1=0, select bank0
  1527  0F34  01A8               	clrf	Lcd_Set_Cursor@b
  1528  0F35  0AA8               	incf	Lcd_Set_Cursor@b,f
  1529  0F36  3001               	movlw	1
  1530  0F37  160A  118A  27A8  120A  158A  	fcall	_Lcd_Set_Cursor
  1531  0F3C                     l3041:
  1532                           
  1533                           ;newmain.c: 249:                 Lcd_Write_String("RACAO COLOCADA.");
  1534  0F3C  301C               	movlw	(low ((STR_8-__stringbase)| (0+32768)))& (0+255)
  1535  0F3D  1283               	bcf	3,5	;RP0=0, select bank0
  1536  0F3E  1303               	bcf	3,6	;RP1=0, select bank0
  1537  0F3F  00A9               	movwf	Lcd_Write_String@a
  1538  0F40  3080               	movlw	128
  1539  0F41  00AA               	movwf	Lcd_Write_String@a+1
  1540  0F42  160A  118A  266E  120A  158A  	fcall	_Lcd_Write_String
  1541  0F47                     l3043:
  1542                           
  1543                           ;newmain.c: 250:                 _delay((unsigned long)((2000)*(4000000/4000.0)));
  1544  0F47  300B               	movlw	11
  1545  0F48  1683               	bsf	3,5	;RP0=1, select bank1
  1546  0F49  1303               	bcf	3,6	;RP1=0, select bank1
  1547  0F4A  00DB               	movwf	(??_main^(0+128)+2)
  1548  0F4B  3026               	movlw	38
  1549  0F4C  00DA               	movwf	(??_main^(0+128)+1)
  1550  0F4D  305D               	movlw	93
  1551  0F4E  00D9               	movwf	??_main^(0+128)
  1552  0F4F                     u3997:
  1553  0F4F  0BD9               	decfsz	??_main^(0+128),f
  1554  0F50  2F4F               	goto	u3997
  1555  0F51  0BDA               	decfsz	(??_main^(0+128)+1),f
  1556  0F52  2F4F               	goto	u3997
  1557  0F53  0BDB               	decfsz	(??_main^(0+128)+2),f
  1558  0F54  2F4F               	goto	u3997
  1559  0F55                     l3045:
  1560                           
  1561                           ;newmain.c: 251:                 Lcd_Padrao();
  1562  0F55  120A  158A  234B  120A  158A  	fcall	_Lcd_Padrao
  1563  0F5A                     l3047:
  1564                           
  1565                           ;newmain.c: 254:        if(PesoEstoque() <= 51)
  1566  0F5A  3042               	movlw	66
  1567  0F5B  1283               	bcf	3,5	;RP0=0, select bank0
  1568  0F5C  1303               	bcf	3,6	;RP1=0, select bank0
  1569  0F5D  00C1               	movwf	___flge@ff1+3
  1570  0F5E  304C               	movlw	76
  1571  0F5F  00C0               	movwf	___flge@ff1+2
  1572  0F60  3000               	movlw	0
  1573  0F61  00BF               	movwf	___flge@ff1+1
  1574  0F62  3000               	movlw	0
  1575  0F63  00BE               	movwf	___flge@ff1
  1576  0F64  160A  118A  2751  120A  158A  	fcall	_PesoEstoque
  1577  0F69  1283               	bcf	3,5	;RP0=0, select bank0
  1578  0F6A  1303               	bcf	3,6	;RP1=0, select bank0
  1579  0F6B  0835               	movf	?_PesoEstoque+3,w
  1580  0F6C  00C5               	movwf	___flge@ff2+3
  1581  0F6D  0834               	movf	?_PesoEstoque+2,w
  1582  0F6E  00C4               	movwf	___flge@ff2+2
  1583  0F6F  0833               	movf	?_PesoEstoque+1,w
  1584  0F70  00C3               	movwf	___flge@ff2+1
  1585  0F71  0832               	movf	?_PesoEstoque,w
  1586  0F72  00C2               	movwf	___flge@ff2
  1587  0F73  120A  158A  22A7  120A  158A  	fcall	___flge
  1588  0F78  1C03               	btfss	3,0
  1589  0F79  2F7B               	goto	u3921
  1590  0F7A  2F7C               	goto	u3920
  1591  0F7B                     u3921:
  1592  0F7B  2DEF               	goto	l2981
  1593  0F7C                     u3920:
  1594  0F7C                     l3049:
  1595  0F7C  0064               	clrwdt	;# 
  1596  0F7D                     l3051:
  1597                           
  1598                           ;newmain.c: 257:            aux_aviso = 0;
  1599  0F7D  1683               	bsf	3,5	;RP0=1, select bank1
  1600  0F7E  1303               	bcf	3,6	;RP1=0, select bank1
  1601  0F7F  01DC               	clrf	_aux_aviso^(0+128)
  1602  0F80  01DD               	clrf	(_aux_aviso+1)^(0+128)
  1603                           
  1604                           ;newmain.c: 258:            aux_timer = 0;
  1605  0F81  1283               	bcf	3,5	;RP0=0, select bank0
  1606  0F82  1303               	bcf	3,6	;RP1=0, select bank0
  1607  0F83  01EA               	clrf	_aux_timer
  1608  0F84  01EB               	clrf	_aux_timer+1
  1609  0F85                     l3053:
  1610                           
  1611                           ;newmain.c: 259:            PORTDbits.RD6 = 1;
  1612  0F85  1708               	bsf	8,6	;volatile
  1613  0F86                     l3055:
  1614                           
  1615                           ;newmain.c: 260:            Lcd_Clear();
  1616  0F86  160A  118A  24F7  120A  158A  	fcall	_Lcd_Clear
  1617  0F8B                     l3057:
  1618                           
  1619                           ;newmain.c: 261:            Lcd_Set_Cursor(1,1);
  1620  0F8B  1283               	bcf	3,5	;RP0=0, select bank0
  1621  0F8C  1303               	bcf	3,6	;RP1=0, select bank0
  1622  0F8D  01A8               	clrf	Lcd_Set_Cursor@b
  1623  0F8E  0AA8               	incf	Lcd_Set_Cursor@b,f
  1624  0F8F  3001               	movlw	1
  1625  0F90  160A  118A  27A8  120A  158A  	fcall	_Lcd_Set_Cursor
  1626  0F95                     l3059:
  1627                           
  1628                           ;newmain.c: 262:            Lcd_Write_String("ESTOQUE EM NIVEL");
  1629  0F95  300B               	movlw	(low ((STR_11-__stringbase)| (0+32768)))& (0+255)
  1630  0F96  1283               	bcf	3,5	;RP0=0, select bank0
  1631  0F97  1303               	bcf	3,6	;RP1=0, select bank0
  1632  0F98  00A9               	movwf	Lcd_Write_String@a
  1633  0F99  3080               	movlw	128
  1634  0F9A  00AA               	movwf	Lcd_Write_String@a+1
  1635  0F9B  160A  118A  266E  120A  158A  	fcall	_Lcd_Write_String
  1636  0FA0                     l3061:
  1637                           
  1638                           ;newmain.c: 263:            Lcd_Set_Cursor(2,1);
  1639  0FA0  1283               	bcf	3,5	;RP0=0, select bank0
  1640  0FA1  1303               	bcf	3,6	;RP1=0, select bank0
  1641  0FA2  01A8               	clrf	Lcd_Set_Cursor@b
  1642  0FA3  0AA8               	incf	Lcd_Set_Cursor@b,f
  1643  0FA4  3002               	movlw	2
  1644  0FA5  160A  118A  27A8  120A  158A  	fcall	_Lcd_Set_Cursor
  1645  0FAA                     l3063:
  1646                           
  1647                           ;newmain.c: 264:            Lcd_Write_String("BAIXO...");
  1648  0FAA  3073               	movlw	(low ((STR_12-__stringbase)| (0+32768)))& (0+255)
  1649  0FAB  1283               	bcf	3,5	;RP0=0, select bank0
  1650  0FAC  1303               	bcf	3,6	;RP1=0, select bank0
  1651  0FAD  00A9               	movwf	Lcd_Write_String@a
  1652  0FAE  3080               	movlw	128
  1653  0FAF  00AA               	movwf	Lcd_Write_String@a+1
  1654  0FB0  160A  118A  266E  120A  158A  	fcall	_Lcd_Write_String
  1655  0FB5                     l3065:
  1656                           
  1657                           ;newmain.c: 265:            T1CONbits.TMR1ON = 1;
  1658  0FB5  1283               	bcf	3,5	;RP0=0, select bank0
  1659  0FB6  1303               	bcf	3,6	;RP1=0, select bank0
  1660  0FB7  1410               	bsf	16,0	;volatile
  1661                           
  1662                           ;newmain.c: 266:            while(aux_timer == 0 && PORTBbits.RB2 == 1){
  1663  0FB8  2FE1               	goto	l3077
  1664  0FB9                     l3067:
  1665                           
  1666                           ;newmain.c: 268:                if(interrupcao == 1){
  1667  0FB9  0368               	decf	_interrupcao,w
  1668  0FBA  0469               	iorwf	_interrupcao+1,w
  1669  0FBB  1D03               	btfss	3,2
  1670  0FBC  2FBE               	goto	u3931
  1671  0FBD  2FBF               	goto	u3930
  1672  0FBE                     u3931:
  1673  0FBE  2FC0               	goto	l3073
  1674  0FBF                     u3930:
  1675  0FBF  2FED               	goto	l173
  1676  0FC0                     l3073:
  1677  0FC0  3042               	movlw	66
  1678  0FC1  00C1               	movwf	___flge@ff1+3
  1679  0FC2  304C               	movlw	76
  1680  0FC3  00C0               	movwf	___flge@ff1+2
  1681  0FC4  3000               	movlw	0
  1682  0FC5  00BF               	movwf	___flge@ff1+1
  1683  0FC6  3000               	movlw	0
  1684  0FC7  00BE               	movwf	___flge@ff1
  1685  0FC8  160A  118A  2751  120A  158A  	fcall	_PesoEstoque
  1686  0FCD  1283               	bcf	3,5	;RP0=0, select bank0
  1687  0FCE  1303               	bcf	3,6	;RP1=0, select bank0
  1688  0FCF  0835               	movf	?_PesoEstoque+3,w
  1689  0FD0  00C5               	movwf	___flge@ff2+3
  1690  0FD1  0834               	movf	?_PesoEstoque+2,w
  1691  0FD2  00C4               	movwf	___flge@ff2+2
  1692  0FD3  0833               	movf	?_PesoEstoque+1,w
  1693  0FD4  00C3               	movwf	___flge@ff2+1
  1694  0FD5  0832               	movf	?_PesoEstoque,w
  1695  0FD6  00C2               	movwf	___flge@ff2
  1696  0FD7  120A  158A  22A7  120A  158A  	fcall	___flge
  1697  0FDC  1803               	btfsc	3,0
  1698  0FDD  2FDF               	goto	u3941
  1699  0FDE  2FE0               	goto	u3940
  1700  0FDF                     u3941:
  1701  0FDF  2FE1               	goto	l3077
  1702  0FE0                     u3940:
  1703  0FE0  2FED               	goto	l173
  1704  0FE1                     l3077:
  1705                           
  1706                           ;newmain.c: 266:            while(aux_timer == 0 && PORTBbits.RB2 == 1){
  1707  0FE1  1283               	bcf	3,5	;RP0=0, select bank0
  1708  0FE2  1303               	bcf	3,6	;RP1=0, select bank0
  1709  0FE3  086A               	movf	_aux_timer,w
  1710  0FE4  046B               	iorwf	_aux_timer+1,w
  1711  0FE5  1D03               	btfss	3,2
  1712  0FE6  2FE8               	goto	u3951
  1713  0FE7  2FE9               	goto	u3950
  1714  0FE8                     u3951:
  1715  0FE8  2FED               	goto	l173
  1716  0FE9                     u3950:
  1717  0FE9                     l3079:
  1718  0FE9  1906               	btfsc	6,2	;volatile
  1719  0FEA  2FEC               	goto	u3961
  1720  0FEB  2FED               	goto	u3960
  1721  0FEC                     u3961:
  1722  0FEC  2FB9               	goto	l3067
  1723  0FED                     u3960:
  1724  0FED                     l173:
  1725                           
  1726                           ;newmain.c: 275:            PORTDbits.RD6 = 0;
  1727  0FED  1283               	bcf	3,5	;RP0=0, select bank0
  1728  0FEE  1303               	bcf	3,6	;RP1=0, select bank0
  1729  0FEF  1308               	bcf	8,6	;volatile
  1730  0FF0                     l3081:
  1731                           
  1732                           ;newmain.c: 276:            if(interrupcao == 0){
  1733  0FF0  0868               	movf	_interrupcao,w
  1734  0FF1  0469               	iorwf	_interrupcao+1,w
  1735  0FF2  1D03               	btfss	3,2
  1736  0FF3  2FF5               	goto	u3971
  1737  0FF4  2FF6               	goto	u3970
  1738  0FF5                     u3971:
  1739  0FF5  2DEF               	goto	l2981
  1740  0FF6                     u3970:
  1741  0FF6                     l3083:
  1742                           
  1743                           ;newmain.c: 277:                aux_aviso = 1;
  1744  0FF6  3001               	movlw	1
  1745  0FF7  1683               	bsf	3,5	;RP0=1, select bank1
  1746  0FF8  1303               	bcf	3,6	;RP1=0, select bank1
  1747  0FF9  00DC               	movwf	_aux_aviso^(0+128)
  1748  0FFA  3000               	movlw	0
  1749  0FFB  00DD               	movwf	(_aux_aviso^(0+128)+1)
  1750  0FFC  2DEF               	goto	l2981
  1751  0FFD  120A  118A  2812   	ljmp	start
  1752  1000                     __end_of_main:
  1753                           
  1754                           	psect	text1
  1755  0AA7                     __ptext1:	
  1756 ;; *************** function ___flge *****************
  1757 ;; Defined at:
  1758 ;;		line 4 in file "C:\Program Files\Microchip\xc8\v2.36\pic\sources\c90\common\flge.c"
  1759 ;; Parameters:    Size  Location     Type
  1760 ;;  ff1             4   30[BANK0 ] void 
  1761 ;;  ff2             4   34[BANK0 ] void 
  1762 ;; Auto vars:     Size  Location     Type
  1763 ;;		None
  1764 ;; Return value:  Size  Location     Type
  1765 ;;		None               void
  1766 ;; Registers used:
  1767 ;;		wreg, status,2, status,0
  1768 ;; Tracked objects:
  1769 ;;		On entry : 0/0
  1770 ;;		On exit  : 0/0
  1771 ;;		Unchanged: 0/0
  1772 ;; Data sizes:     COMMON   BANK0   BANK1   BANK3   BANK2
  1773 ;;      Params:         0       8       0       0       0
  1774 ;;      Locals:         0       0       0       0       0
  1775 ;;      Temps:          0       4       0       0       0
  1776 ;;      Totals:         0      12       0       0       0
  1777 ;;Total ram usage:       12 bytes
  1778 ;; Hardware stack levels used: 1
  1779 ;; Hardware stack levels required when called: 4
  1780 ;; This function calls:
  1781 ;;		Nothing
  1782 ;; This function is called by:
  1783 ;;		_main
  1784 ;; This function uses a non-reentrant model
  1785 ;;
  1786                           
  1787  0AA7                     ___flge:	
  1788                           ;psect for function ___flge
  1789                           
  1790  0AA7                     l2557:	
  1791                           ;incstack = 0
  1792                           ; Regs used in ___flge: [wreg+status,2+status,0]
  1793                           
  1794  0AA7  3000               	movlw	0
  1795  0AA8  1283               	bcf	3,5	;RP0=0, select bank0
  1796  0AA9  1303               	bcf	3,6	;RP1=0, select bank0
  1797  0AAA  053E               	andwf	___flge@ff1,w
  1798  0AAB  00C6               	movwf	??___flge
  1799  0AAC  3000               	movlw	0
  1800  0AAD  053F               	andwf	___flge@ff1+1,w
  1801  0AAE  00C7               	movwf	??___flge+1
  1802  0AAF  3080               	movlw	128
  1803  0AB0  0540               	andwf	___flge@ff1+2,w
  1804  0AB1  00C8               	movwf	??___flge+2
  1805  0AB2  307F               	movlw	127
  1806  0AB3  0541               	andwf	___flge@ff1+3,w
  1807  0AB4  00C9               	movwf	??___flge+3
  1808  0AB5  0849               	movf	??___flge+3,w
  1809  0AB6  0448               	iorwf	??___flge+2,w
  1810  0AB7  0447               	iorwf	??___flge+1,w
  1811  0AB8  0446               	iorwf	??___flge,w
  1812  0AB9  1D03               	skipz
  1813  0ABA  2ABC               	goto	u3281
  1814  0ABB  2ABD               	goto	u3280
  1815  0ABC                     u3281:
  1816  0ABC  2AC5               	goto	l469
  1817  0ABD                     u3280:
  1818  0ABD                     l2559:
  1819  0ABD  3000               	movlw	0
  1820  0ABE  00C1               	movwf	___flge@ff1+3
  1821  0ABF  3000               	movlw	0
  1822  0AC0  00C0               	movwf	___flge@ff1+2
  1823  0AC1  3000               	movlw	0
  1824  0AC2  00BF               	movwf	___flge@ff1+1
  1825  0AC3  3000               	movlw	0
  1826  0AC4  00BE               	movwf	___flge@ff1
  1827  0AC5                     l469:
  1828  0AC5  3000               	movlw	0
  1829  0AC6  0542               	andwf	___flge@ff2,w
  1830  0AC7  00C6               	movwf	??___flge
  1831  0AC8  3000               	movlw	0
  1832  0AC9  0543               	andwf	___flge@ff2+1,w
  1833  0ACA  00C7               	movwf	??___flge+1
  1834  0ACB  3080               	movlw	128
  1835  0ACC  0544               	andwf	___flge@ff2+2,w
  1836  0ACD  00C8               	movwf	??___flge+2
  1837  0ACE  307F               	movlw	127
  1838  0ACF  0545               	andwf	___flge@ff2+3,w
  1839  0AD0  00C9               	movwf	??___flge+3
  1840  0AD1  0849               	movf	??___flge+3,w
  1841  0AD2  0448               	iorwf	??___flge+2,w
  1842  0AD3  0447               	iorwf	??___flge+1,w
  1843  0AD4  0446               	iorwf	??___flge,w
  1844  0AD5  1D03               	skipz
  1845  0AD6  2AD8               	goto	u3291
  1846  0AD7  2AD9               	goto	u3290
  1847  0AD8                     u3291:
  1848  0AD8  2AE1               	goto	l2563
  1849  0AD9                     u3290:
  1850  0AD9                     l2561:
  1851  0AD9  3000               	movlw	0
  1852  0ADA  00C5               	movwf	___flge@ff2+3
  1853  0ADB  3000               	movlw	0
  1854  0ADC  00C4               	movwf	___flge@ff2+2
  1855  0ADD  3000               	movlw	0
  1856  0ADE  00C3               	movwf	___flge@ff2+1
  1857  0ADF  3000               	movlw	0
  1858  0AE0  00C2               	movwf	___flge@ff2
  1859  0AE1                     l2563:
  1860  0AE1  1FC1               	btfss	___flge@ff1+3,7
  1861  0AE2  2AE4               	goto	u3301
  1862  0AE3  2AE5               	goto	u3300
  1863  0AE4                     u3301:
  1864  0AE4  2B09               	goto	l2567
  1865  0AE5                     u3300:
  1866  0AE5                     l2565:
  1867  0AE5  3000               	movlw	0
  1868  0AE6  00C6               	movwf	??___flge
  1869  0AE7  3000               	movlw	0
  1870  0AE8  00C7               	movwf	??___flge+1
  1871  0AE9  3000               	movlw	0
  1872  0AEA  00C8               	movwf	??___flge+2
  1873  0AEB  3080               	movlw	128
  1874  0AEC  00C9               	movwf	??___flge+3
  1875  0AED  083E               	movf	___flge@ff1,w
  1876  0AEE  02C6               	subwf	??___flge,f
  1877  0AEF  083F               	movf	___flge@ff1+1,w
  1878  0AF0  1C03               	skipc
  1879  0AF1  0F3F               	incfsz	___flge@ff1+1,w
  1880  0AF2  2AF4               	goto	u3311
  1881  0AF3  2AF5               	goto	u3312
  1882  0AF4                     u3311:
  1883  0AF4  02C7               	subwf	??___flge+1,f
  1884  0AF5                     u3312:
  1885  0AF5  0840               	movf	___flge@ff1+2,w
  1886  0AF6  1C03               	skipc
  1887  0AF7  0F40               	incfsz	___flge@ff1+2,w
  1888  0AF8  2AFA               	goto	u3313
  1889  0AF9  2AFB               	goto	u3314
  1890  0AFA                     u3313:
  1891  0AFA  02C8               	subwf	??___flge+2,f
  1892  0AFB                     u3314:
  1893  0AFB  0841               	movf	___flge@ff1+3,w
  1894  0AFC  1C03               	skipc
  1895  0AFD  0F41               	incfsz	___flge@ff1+3,w
  1896  0AFE  2B00               	goto	u3315
  1897  0AFF  2B01               	goto	u3316
  1898  0B00                     u3315:
  1899  0B00  02C9               	subwf	??___flge+3,f
  1900  0B01                     u3316:
  1901  0B01  0849               	movf	??___flge+3,w
  1902  0B02  00C1               	movwf	___flge@ff1+3
  1903  0B03  0848               	movf	??___flge+2,w
  1904  0B04  00C0               	movwf	___flge@ff1+2
  1905  0B05  0847               	movf	??___flge+1,w
  1906  0B06  00BF               	movwf	___flge@ff1+1
  1907  0B07  0846               	movf	??___flge,w
  1908  0B08  00BE               	movwf	___flge@ff1
  1909  0B09                     l2567:
  1910  0B09  1FC5               	btfss	___flge@ff2+3,7
  1911  0B0A  2B0C               	goto	u3321
  1912  0B0B  2B0D               	goto	u3320
  1913  0B0C                     u3321:
  1914  0B0C  2B31               	goto	l472
  1915  0B0D                     u3320:
  1916  0B0D                     l2569:
  1917  0B0D  3000               	movlw	0
  1918  0B0E  00C6               	movwf	??___flge
  1919  0B0F  3000               	movlw	0
  1920  0B10  00C7               	movwf	??___flge+1
  1921  0B11  3000               	movlw	0
  1922  0B12  00C8               	movwf	??___flge+2
  1923  0B13  3080               	movlw	128
  1924  0B14  00C9               	movwf	??___flge+3
  1925  0B15  0842               	movf	___flge@ff2,w
  1926  0B16  02C6               	subwf	??___flge,f
  1927  0B17  0843               	movf	___flge@ff2+1,w
  1928  0B18  1C03               	skipc
  1929  0B19  0F43               	incfsz	___flge@ff2+1,w
  1930  0B1A  2B1C               	goto	u3331
  1931  0B1B  2B1D               	goto	u3332
  1932  0B1C                     u3331:
  1933  0B1C  02C7               	subwf	??___flge+1,f
  1934  0B1D                     u3332:
  1935  0B1D  0844               	movf	___flge@ff2+2,w
  1936  0B1E  1C03               	skipc
  1937  0B1F  0F44               	incfsz	___flge@ff2+2,w
  1938  0B20  2B22               	goto	u3333
  1939  0B21  2B23               	goto	u3334
  1940  0B22                     u3333:
  1941  0B22  02C8               	subwf	??___flge+2,f
  1942  0B23                     u3334:
  1943  0B23  0845               	movf	___flge@ff2+3,w
  1944  0B24  1C03               	skipc
  1945  0B25  0F45               	incfsz	___flge@ff2+3,w
  1946  0B26  2B28               	goto	u3335
  1947  0B27  2B29               	goto	u3336
  1948  0B28                     u3335:
  1949  0B28  02C9               	subwf	??___flge+3,f
  1950  0B29                     u3336:
  1951  0B29  0849               	movf	??___flge+3,w
  1952  0B2A  00C5               	movwf	___flge@ff2+3
  1953  0B2B  0848               	movf	??___flge+2,w
  1954  0B2C  00C4               	movwf	___flge@ff2+2
  1955  0B2D  0847               	movf	??___flge+1,w
  1956  0B2E  00C3               	movwf	___flge@ff2+1
  1957  0B2F  0846               	movf	??___flge,w
  1958  0B30  00C2               	movwf	___flge@ff2
  1959  0B31                     l472:
  1960  0B31  3080               	movlw	128
  1961  0B32  06C1               	xorwf	___flge@ff1+3,f
  1962  0B33  3080               	movlw	128
  1963  0B34  06C5               	xorwf	___flge@ff2+3,f
  1964  0B35  0845               	movf	___flge@ff2+3,w
  1965  0B36  0241               	subwf	___flge@ff1+3,w
  1966  0B37  1D03               	skipz
  1967  0B38  2B43               	goto	u3345
  1968  0B39  0844               	movf	___flge@ff2+2,w
  1969  0B3A  0240               	subwf	___flge@ff1+2,w
  1970  0B3B  1D03               	skipz
  1971  0B3C  2B43               	goto	u3345
  1972  0B3D  0843               	movf	___flge@ff2+1,w
  1973  0B3E  023F               	subwf	___flge@ff1+1,w
  1974  0B3F  1D03               	skipz
  1975  0B40  2B43               	goto	u3345
  1976  0B41  0842               	movf	___flge@ff2,w
  1977  0B42  023E               	subwf	___flge@ff1,w
  1978  0B43                     u3345:
  1979  0B43  1803               	skipnc
  1980  0B44  2B46               	goto	u3341
  1981  0B45  2B47               	goto	u3340
  1982  0B46                     u3341:
  1983  0B46  2B49               	goto	l2573
  1984  0B47                     u3340:
  1985  0B47                     l2571:
  1986  0B47  1003               	clrc
  1987  0B48  2B4A               	goto	l473
  1988  0B49                     l2573:
  1989  0B49  1403               	setc
  1990  0B4A                     l473:
  1991  0B4A  0008               	return
  1992  0B4B                     __end_of___flge:
  1993                           
  1994                           	psect	text2
  1995  0B4B                     __ptext2:	
  1996 ;; *************** function _Lcd_Padrao *****************
  1997 ;; Defined at:
  1998 ;;		line 109 in file "newmain.c"
  1999 ;; Parameters:    Size  Location     Type
  2000 ;;		None
  2001 ;; Auto vars:     Size  Location     Type
  2002 ;;  buffer         20   33[BANK1 ] unsigned char [20]
  2003 ;;  nivel_estoqu    2   55[BANK1 ] int 
  2004 ;;  nivel_cambuc    2   53[BANK1 ] int 
  2005 ;; Return value:  Size  Location     Type
  2006 ;;                  1    wreg      void 
  2007 ;; Registers used:
  2008 ;;		wreg, fsr0l, fsr0h, status,2, status,0, btemp+1, pclath, cstack
  2009 ;; Tracked objects:
  2010 ;;		On entry : 0/0
  2011 ;;		On exit  : 0/0
  2012 ;;		Unchanged: 0/0
  2013 ;; Data sizes:     COMMON   BANK0   BANK1   BANK3   BANK2
  2014 ;;      Params:         0       0       0       0       0
  2015 ;;      Locals:         0       0      24       0       0
  2016 ;;      Temps:          0       0       3       0       0
  2017 ;;      Totals:         0       0      27       0       0
  2018 ;;Total ram usage:       27 bytes
  2019 ;; Hardware stack levels used: 1
  2020 ;; Hardware stack levels required when called: 7
  2021 ;; This function calls:
  2022 ;;		_Lcd_Clear
  2023 ;;		_Lcd_Set_Cursor
  2024 ;;		_Lcd_Write_String
  2025 ;;		_PesoCambuca
  2026 ;;		_PesoEstoque
  2027 ;;		___awdiv
  2028 ;;		___fldiv
  2029 ;;		___flmul
  2030 ;;		___fltol
  2031 ;;		_sprintf
  2032 ;; This function is called by:
  2033 ;;		_main
  2034 ;; This function uses a non-reentrant model
  2035 ;;
  2036                           
  2037  0B4B                     _Lcd_Padrao:	
  2038                           ;psect for function _Lcd_Padrao
  2039                           
  2040  0B4B                     l2865:	
  2041                           ;incstack = 0
  2042                           ; Regs used in _Lcd_Padrao: [wreg-fsr0h+status,2+status,0+btemp+1+pclath+cstack]
  2043                           
  2044                           
  2045                           ;newmain.c: 110:     char buffer[20];;newmain.c: 111:     int nivel_cambuca = (int)(Peso
      +                          Cambuca()*100)/255;
  2046  0B4B  30FF               	movlw	255
  2047  0B4C  1683               	bsf	3,5	;RP0=1, select bank1
  2048  0B4D  1303               	bcf	3,6	;RP1=0, select bank1
  2049  0B4E  00B6               	movwf	___awdiv@divisor^(0+128)
  2050  0B4F  3000               	movlw	0
  2051  0B50  00B7               	movwf	(___awdiv@divisor^(0+128)+1)
  2052  0B51  160A  118A  26FA  120A  158A  	fcall	_PesoCambuca
  2053  0B56  1283               	bcf	3,5	;RP0=0, select bank0
  2054  0B57  1303               	bcf	3,6	;RP1=0, select bank0
  2055  0B58  0835               	movf	?_PesoCambuca+3,w
  2056  0B59  00C5               	movwf	___flmul@a+3
  2057  0B5A  0834               	movf	?_PesoCambuca+2,w
  2058  0B5B  00C4               	movwf	___flmul@a+2
  2059  0B5C  0833               	movf	?_PesoCambuca+1,w
  2060  0B5D  00C3               	movwf	___flmul@a+1
  2061  0B5E  0832               	movf	?_PesoCambuca,w
  2062  0B5F  00C2               	movwf	___flmul@a
  2063  0B60  3042               	movlw	66
  2064  0B61  00C1               	movwf	___flmul@b+3
  2065  0B62  30C8               	movlw	200
  2066  0B63  00C0               	movwf	___flmul@b+2
  2067  0B64  3000               	movlw	0
  2068  0B65  00BF               	movwf	___flmul@b+1
  2069  0B66  3000               	movlw	0
  2070  0B67  00BE               	movwf	___flmul@b
  2071  0B68  120A  118A  202D  120A  158A  	fcall	___flmul
  2072  0B6D  1283               	bcf	3,5	;RP0=0, select bank0
  2073  0B6E  1303               	bcf	3,6	;RP1=0, select bank0
  2074  0B6F  0841               	movf	?___flmul+3,w
  2075  0B70  1683               	bsf	3,5	;RP0=1, select bank1
  2076  0B71  1303               	bcf	3,6	;RP1=0, select bank1
  2077  0B72  00B0               	movwf	(___fltol@f1+3)^(0+128)
  2078  0B73  1283               	bcf	3,5	;RP0=0, select bank0
  2079  0B74  1303               	bcf	3,6	;RP1=0, select bank0
  2080  0B75  0840               	movf	?___flmul+2,w
  2081  0B76  1683               	bsf	3,5	;RP0=1, select bank1
  2082  0B77  1303               	bcf	3,6	;RP1=0, select bank1
  2083  0B78  00AF               	movwf	(___fltol@f1+2)^(0+128)
  2084  0B79  1283               	bcf	3,5	;RP0=0, select bank0
  2085  0B7A  1303               	bcf	3,6	;RP1=0, select bank0
  2086  0B7B  083F               	movf	?___flmul+1,w
  2087  0B7C  1683               	bsf	3,5	;RP0=1, select bank1
  2088  0B7D  1303               	bcf	3,6	;RP1=0, select bank1
  2089  0B7E  00AE               	movwf	(___fltol@f1+1)^(0+128)
  2090  0B7F  1283               	bcf	3,5	;RP0=0, select bank0
  2091  0B80  1303               	bcf	3,6	;RP1=0, select bank0
  2092  0B81  083E               	movf	?___flmul,w
  2093  0B82  1683               	bsf	3,5	;RP0=1, select bank1
  2094  0B83  1303               	bcf	3,6	;RP1=0, select bank1
  2095  0B84  00AD               	movwf	___fltol@f1^(0+128)
  2096  0B85  120A  158A  2215  120A  158A  	fcall	___fltol
  2097  0B8A  1683               	bsf	3,5	;RP0=1, select bank1
  2098  0B8B  1303               	bcf	3,6	;RP1=0, select bank1
  2099  0B8C  082E               	movf	(?___fltol+1)^(0+128),w
  2100  0B8D  00B9               	movwf	(___awdiv@dividend+1)^(0+128)
  2101  0B8E  082D               	movf	?___fltol^(0+128),w
  2102  0B8F  00B8               	movwf	___awdiv@dividend^(0+128)
  2103  0B90  120A  158A  21A4  120A  158A  	fcall	___awdiv
  2104  0B95  1683               	bsf	3,5	;RP0=1, select bank1
  2105  0B96  1303               	bcf	3,6	;RP1=0, select bank1
  2106  0B97  0837               	movf	(?___awdiv+1)^(0+128),w
  2107  0B98  00D6               	movwf	(Lcd_Padrao@nivel_cambuca+1)^(0+128)
  2108  0B99  0836               	movf	?___awdiv^(0+128),w
  2109  0B9A  00D5               	movwf	Lcd_Padrao@nivel_cambuca^(0+128)
  2110                           
  2111                           ;newmain.c: 112:     int nivel_estoque = (int)(PesoEstoque()*100)/255;
  2112  0B9B  30FF               	movlw	255
  2113  0B9C  00B6               	movwf	___awdiv@divisor^(0+128)
  2114  0B9D  3000               	movlw	0
  2115  0B9E  00B7               	movwf	(___awdiv@divisor^(0+128)+1)
  2116  0B9F  160A  118A  2751  120A  158A  	fcall	_PesoEstoque
  2117  0BA4  1283               	bcf	3,5	;RP0=0, select bank0
  2118  0BA5  1303               	bcf	3,6	;RP1=0, select bank0
  2119  0BA6  0835               	movf	?_PesoEstoque+3,w
  2120  0BA7  00C5               	movwf	___flmul@a+3
  2121  0BA8  0834               	movf	?_PesoEstoque+2,w
  2122  0BA9  00C4               	movwf	___flmul@a+2
  2123  0BAA  0833               	movf	?_PesoEstoque+1,w
  2124  0BAB  00C3               	movwf	___flmul@a+1
  2125  0BAC  0832               	movf	?_PesoEstoque,w
  2126  0BAD  00C2               	movwf	___flmul@a
  2127  0BAE  3042               	movlw	66
  2128  0BAF  00C1               	movwf	___flmul@b+3
  2129  0BB0  30C8               	movlw	200
  2130  0BB1  00C0               	movwf	___flmul@b+2
  2131  0BB2  3000               	movlw	0
  2132  0BB3  00BF               	movwf	___flmul@b+1
  2133  0BB4  3000               	movlw	0
  2134  0BB5  00BE               	movwf	___flmul@b
  2135  0BB6  120A  118A  202D  120A  158A  	fcall	___flmul
  2136  0BBB  1283               	bcf	3,5	;RP0=0, select bank0
  2137  0BBC  1303               	bcf	3,6	;RP1=0, select bank0
  2138  0BBD  0841               	movf	?___flmul+3,w
  2139  0BBE  1683               	bsf	3,5	;RP0=1, select bank1
  2140  0BBF  1303               	bcf	3,6	;RP1=0, select bank1
  2141  0BC0  00B0               	movwf	(___fltol@f1+3)^(0+128)
  2142  0BC1  1283               	bcf	3,5	;RP0=0, select bank0
  2143  0BC2  1303               	bcf	3,6	;RP1=0, select bank0
  2144  0BC3  0840               	movf	?___flmul+2,w
  2145  0BC4  1683               	bsf	3,5	;RP0=1, select bank1
  2146  0BC5  1303               	bcf	3,6	;RP1=0, select bank1
  2147  0BC6  00AF               	movwf	(___fltol@f1+2)^(0+128)
  2148  0BC7  1283               	bcf	3,5	;RP0=0, select bank0
  2149  0BC8  1303               	bcf	3,6	;RP1=0, select bank0
  2150  0BC9  083F               	movf	?___flmul+1,w
  2151  0BCA  1683               	bsf	3,5	;RP0=1, select bank1
  2152  0BCB  1303               	bcf	3,6	;RP1=0, select bank1
  2153  0BCC  00AE               	movwf	(___fltol@f1+1)^(0+128)
  2154  0BCD  1283               	bcf	3,5	;RP0=0, select bank0
  2155  0BCE  1303               	bcf	3,6	;RP1=0, select bank0
  2156  0BCF  083E               	movf	?___flmul,w
  2157  0BD0  1683               	bsf	3,5	;RP0=1, select bank1
  2158  0BD1  1303               	bcf	3,6	;RP1=0, select bank1
  2159  0BD2  00AD               	movwf	___fltol@f1^(0+128)
  2160  0BD3  120A  158A  2215  120A  158A  	fcall	___fltol
  2161  0BD8  1683               	bsf	3,5	;RP0=1, select bank1
  2162  0BD9  1303               	bcf	3,6	;RP1=0, select bank1
  2163  0BDA  082E               	movf	(?___fltol+1)^(0+128),w
  2164  0BDB  00B9               	movwf	(___awdiv@dividend+1)^(0+128)
  2165  0BDC  082D               	movf	?___fltol^(0+128),w
  2166  0BDD  00B8               	movwf	___awdiv@dividend^(0+128)
  2167  0BDE  120A  158A  21A4  120A  158A  	fcall	___awdiv
  2168  0BE3  1683               	bsf	3,5	;RP0=1, select bank1
  2169  0BE4  1303               	bcf	3,6	;RP1=0, select bank1
  2170  0BE5  0837               	movf	(?___awdiv+1)^(0+128),w
  2171  0BE6  00D8               	movwf	(Lcd_Padrao@nivel_estoque+1)^(0+128)
  2172  0BE7  0836               	movf	?___awdiv^(0+128),w
  2173  0BE8  00D7               	movwf	Lcd_Padrao@nivel_estoque^(0+128)
  2174  0BE9                     l2867:
  2175                           
  2176                           ;newmain.c: 113:     if(aux_lcd == 0 || aux_aviso == 1){
  2177  0BE9  0864               	movf	_aux_lcd^(0+128),w
  2178  0BEA  0465               	iorwf	(_aux_lcd+1)^(0+128),w
  2179  0BEB  1903               	btfsc	3,2
  2180  0BEC  2BEE               	goto	u3741
  2181  0BED  2BEF               	goto	u3740
  2182  0BEE                     u3741:
  2183  0BEE  2BF5               	goto	l2871
  2184  0BEF                     u3740:
  2185  0BEF                     l2869:
  2186  0BEF  035C               	decf	_aux_aviso^(0+128),w
  2187  0BF0  045D               	iorwf	(_aux_aviso+1)^(0+128),w
  2188  0BF1  1D03               	btfss	3,2
  2189  0BF2  2BF4               	goto	u3751
  2190  0BF3  2BF5               	goto	u3750
  2191  0BF4                     u3751:
  2192  0BF4  2D21               	goto	l2893
  2193  0BF5                     u3750:
  2194  0BF5                     l2871:
  2195                           
  2196                           ;newmain.c: 114:         sprintf(buffer, "Estoque = %d%%", nivel_estoque);
  2197  0BF5  303B               	movlw	(low ((STR_3-__stringbase)| (0+32768)))& (0+255)
  2198  0BF6  00BE               	movwf	??_Lcd_Padrao^(0+128)
  2199  0BF7  083E               	movf	??_Lcd_Padrao^(0+128),w
  2200  0BF8  1283               	bcf	3,5	;RP0=0, select bank0
  2201  0BF9  1303               	bcf	3,6	;RP1=0, select bank0
  2202  0BFA  00B2               	movwf	sprintf@f
  2203  0BFB  1683               	bsf	3,5	;RP0=1, select bank1
  2204  0BFC  1303               	bcf	3,6	;RP1=0, select bank1
  2205  0BFD  0858               	movf	(Lcd_Padrao@nivel_estoque+1)^(0+128),w
  2206  0BFE  1283               	bcf	3,5	;RP0=0, select bank0
  2207  0BFF  1303               	bcf	3,6	;RP1=0, select bank0
  2208  0C00  00B4               	movwf	?_sprintf+2
  2209  0C01  1683               	bsf	3,5	;RP0=1, select bank1
  2210  0C02  1303               	bcf	3,6	;RP1=0, select bank1
  2211  0C03  0857               	movf	Lcd_Padrao@nivel_estoque^(0+128),w
  2212  0C04  1283               	bcf	3,5	;RP0=0, select bank0
  2213  0C05  1303               	bcf	3,6	;RP1=0, select bank0
  2214  0C06  00B3               	movwf	?_sprintf+1
  2215  0C07  30C1               	movlw	(low (Lcd_Padrao@buffer| 0))& (0+255)
  2216  0C08  120A  118A  262E  120A  158A  	fcall	_sprintf
  2217  0C0D                     l2873:
  2218                           
  2219                           ;newmain.c: 115:         Lcd_Clear();
  2220  0C0D  160A  118A  24F7  120A  158A  	fcall	_Lcd_Clear
  2221  0C12                     l2875:
  2222                           
  2223                           ;newmain.c: 116:         Lcd_Set_Cursor(1,1);
  2224  0C12  1283               	bcf	3,5	;RP0=0, select bank0
  2225  0C13  1303               	bcf	3,6	;RP1=0, select bank0
  2226  0C14  01A8               	clrf	Lcd_Set_Cursor@b
  2227  0C15  0AA8               	incf	Lcd_Set_Cursor@b,f
  2228  0C16  3001               	movlw	1
  2229  0C17  160A  118A  27A8  120A  158A  	fcall	_Lcd_Set_Cursor
  2230                           
  2231                           ;newmain.c: 117:         Lcd_Write_String(buffer);
  2232  0C1C  30C1               	movlw	(low (Lcd_Padrao@buffer| 0))& (0+255)
  2233  0C1D  1283               	bcf	3,5	;RP0=0, select bank0
  2234  0C1E  1303               	bcf	3,6	;RP1=0, select bank0
  2235  0C1F  00A9               	movwf	Lcd_Write_String@a
  2236  0C20  3000               	movlw	0
  2237  0C21  00AA               	movwf	Lcd_Write_String@a+1
  2238  0C22  160A  118A  266E  120A  158A  	fcall	_Lcd_Write_String
  2239                           
  2240                           ;newmain.c: 118:         sprintf(buffer, "Cambuca = %d%%", nivel_cambuca);
  2241  0C27  302C               	movlw	(low ((STR_4-__stringbase)| (0+32768)))& (0+255)
  2242  0C28  1683               	bsf	3,5	;RP0=1, select bank1
  2243  0C29  1303               	bcf	3,6	;RP1=0, select bank1
  2244  0C2A  00BE               	movwf	??_Lcd_Padrao^(0+128)
  2245  0C2B  083E               	movf	??_Lcd_Padrao^(0+128),w
  2246  0C2C  1283               	bcf	3,5	;RP0=0, select bank0
  2247  0C2D  1303               	bcf	3,6	;RP1=0, select bank0
  2248  0C2E  00B2               	movwf	sprintf@f
  2249  0C2F  1683               	bsf	3,5	;RP0=1, select bank1
  2250  0C30  1303               	bcf	3,6	;RP1=0, select bank1
  2251  0C31  0856               	movf	(Lcd_Padrao@nivel_cambuca+1)^(0+128),w
  2252  0C32  1283               	bcf	3,5	;RP0=0, select bank0
  2253  0C33  1303               	bcf	3,6	;RP1=0, select bank0
  2254  0C34  00B4               	movwf	?_sprintf+2
  2255  0C35  1683               	bsf	3,5	;RP0=1, select bank1
  2256  0C36  1303               	bcf	3,6	;RP1=0, select bank1
  2257  0C37  0855               	movf	Lcd_Padrao@nivel_cambuca^(0+128),w
  2258  0C38  1283               	bcf	3,5	;RP0=0, select bank0
  2259  0C39  1303               	bcf	3,6	;RP1=0, select bank0
  2260  0C3A  00B3               	movwf	?_sprintf+1
  2261  0C3B  30C1               	movlw	(low (Lcd_Padrao@buffer| 0))& (0+255)
  2262  0C3C  120A  118A  262E  120A  158A  	fcall	_sprintf
  2263  0C41                     l2877:
  2264                           
  2265                           ;newmain.c: 119:         Lcd_Set_Cursor(2,1);
  2266  0C41  1283               	bcf	3,5	;RP0=0, select bank0
  2267  0C42  1303               	bcf	3,6	;RP1=0, select bank0
  2268  0C43  01A8               	clrf	Lcd_Set_Cursor@b
  2269  0C44  0AA8               	incf	Lcd_Set_Cursor@b,f
  2270  0C45  3002               	movlw	2
  2271  0C46  160A  118A  27A8  120A  158A  	fcall	_Lcd_Set_Cursor
  2272  0C4B                     l2879:
  2273                           
  2274                           ;newmain.c: 120:         Lcd_Write_String(buffer);
  2275  0C4B  30C1               	movlw	(low (Lcd_Padrao@buffer| 0))& (0+255)
  2276  0C4C  1283               	bcf	3,5	;RP0=0, select bank0
  2277  0C4D  1303               	bcf	3,6	;RP1=0, select bank0
  2278  0C4E  00A9               	movwf	Lcd_Write_String@a
  2279  0C4F  3000               	movlw	0
  2280  0C50  00AA               	movwf	Lcd_Write_String@a+1
  2281  0C51  160A  118A  266E  120A  158A  	fcall	_Lcd_Write_String
  2282  0C56                     l2881:
  2283                           
  2284                           ;newmain.c: 121:         aux_lcd = 1;
  2285  0C56  3001               	movlw	1
  2286  0C57  1683               	bsf	3,5	;RP0=1, select bank1
  2287  0C58  1303               	bcf	3,6	;RP1=0, select bank1
  2288  0C59  00E4               	movwf	_aux_lcd^(0+128)
  2289  0C5A  3000               	movlw	0
  2290  0C5B  00E5               	movwf	(_aux_lcd^(0+128)+1)
  2291  0C5C                     l2883:
  2292                           
  2293                           ;newmain.c: 122:         aux_cambuca = (PesoCambuca()*100)/255;
  2294  0C5C  160A  118A  26FA  120A  158A  	fcall	_PesoCambuca
  2295  0C61  1283               	bcf	3,5	;RP0=0, select bank0
  2296  0C62  1303               	bcf	3,6	;RP1=0, select bank0
  2297  0C63  0835               	movf	?_PesoCambuca+3,w
  2298  0C64  00C5               	movwf	___flmul@a+3
  2299  0C65  0834               	movf	?_PesoCambuca+2,w
  2300  0C66  00C4               	movwf	___flmul@a+2
  2301  0C67  0833               	movf	?_PesoCambuca+1,w
  2302  0C68  00C3               	movwf	___flmul@a+1
  2303  0C69  0832               	movf	?_PesoCambuca,w
  2304  0C6A  00C2               	movwf	___flmul@a
  2305  0C6B  3042               	movlw	66
  2306  0C6C  00C1               	movwf	___flmul@b+3
  2307  0C6D  30C8               	movlw	200
  2308  0C6E  00C0               	movwf	___flmul@b+2
  2309  0C6F  3000               	movlw	0
  2310  0C70  00BF               	movwf	___flmul@b+1
  2311  0C71  3000               	movlw	0
  2312  0C72  00BE               	movwf	___flmul@b
  2313  0C73  120A  118A  202D  120A  158A  	fcall	___flmul
  2314  0C78  1283               	bcf	3,5	;RP0=0, select bank0
  2315  0C79  1303               	bcf	3,6	;RP1=0, select bank0
  2316  0C7A  0841               	movf	?___flmul+3,w
  2317  0C7B  00DF               	movwf	___fldiv@b+3
  2318  0C7C  0840               	movf	?___flmul+2,w
  2319  0C7D  00DE               	movwf	___fldiv@b+2
  2320  0C7E  083F               	movf	?___flmul+1,w
  2321  0C7F  00DD               	movwf	___fldiv@b+1
  2322  0C80  083E               	movf	?___flmul,w
  2323  0C81  00DC               	movwf	___fldiv@b
  2324  0C82  3043               	movlw	67
  2325  0C83  00DB               	movwf	___fldiv@a+3
  2326  0C84  307F               	movlw	127
  2327  0C85  00DA               	movwf	___fldiv@a+2
  2328  0C86  3000               	movlw	0
  2329  0C87  00D9               	movwf	___fldiv@a+1
  2330  0C88  3000               	movlw	0
  2331  0C89  00D8               	movwf	___fldiv@a
  2332  0C8A  120A  118A  238E  120A  158A  	fcall	___fldiv
  2333  0C8F  1283               	bcf	3,5	;RP0=0, select bank0
  2334  0C90  1303               	bcf	3,6	;RP1=0, select bank0
  2335  0C91  085B               	movf	?___fldiv+3,w
  2336  0C92  1683               	bsf	3,5	;RP0=1, select bank1
  2337  0C93  1303               	bcf	3,6	;RP1=0, select bank1
  2338  0C94  00B0               	movwf	(___fltol@f1+3)^(0+128)
  2339  0C95  1283               	bcf	3,5	;RP0=0, select bank0
  2340  0C96  1303               	bcf	3,6	;RP1=0, select bank0
  2341  0C97  085A               	movf	?___fldiv+2,w
  2342  0C98  1683               	bsf	3,5	;RP0=1, select bank1
  2343  0C99  1303               	bcf	3,6	;RP1=0, select bank1
  2344  0C9A  00AF               	movwf	(___fltol@f1+2)^(0+128)
  2345  0C9B  1283               	bcf	3,5	;RP0=0, select bank0
  2346  0C9C  1303               	bcf	3,6	;RP1=0, select bank0
  2347  0C9D  0859               	movf	?___fldiv+1,w
  2348  0C9E  1683               	bsf	3,5	;RP0=1, select bank1
  2349  0C9F  1303               	bcf	3,6	;RP1=0, select bank1
  2350  0CA0  00AE               	movwf	(___fltol@f1+1)^(0+128)
  2351  0CA1  1283               	bcf	3,5	;RP0=0, select bank0
  2352  0CA2  1303               	bcf	3,6	;RP1=0, select bank0
  2353  0CA3  0858               	movf	?___fldiv,w
  2354  0CA4  1683               	bsf	3,5	;RP0=1, select bank1
  2355  0CA5  1303               	bcf	3,6	;RP1=0, select bank1
  2356  0CA6  00AD               	movwf	___fltol@f1^(0+128)
  2357  0CA7  120A  158A  2215  120A  158A  	fcall	___fltol
  2358  0CAC  1683               	bsf	3,5	;RP0=1, select bank1
  2359  0CAD  1303               	bcf	3,6	;RP1=0, select bank1
  2360  0CAE  082E               	movf	(?___fltol+1)^(0+128),w
  2361  0CAF  00E1               	movwf	(_aux_cambuca+1)^(0+128)
  2362  0CB0  082D               	movf	?___fltol^(0+128),w
  2363  0CB1  00E0               	movwf	_aux_cambuca^(0+128)
  2364  0CB2                     l2885:
  2365                           
  2366                           ;newmain.c: 123:         aux_estoque = (PesoEstoque()*100)/255;
  2367  0CB2  160A  118A  2751  120A  158A  	fcall	_PesoEstoque
  2368  0CB7  1283               	bcf	3,5	;RP0=0, select bank0
  2369  0CB8  1303               	bcf	3,6	;RP1=0, select bank0
  2370  0CB9  0835               	movf	?_PesoEstoque+3,w
  2371  0CBA  00C5               	movwf	___flmul@a+3
  2372  0CBB  0834               	movf	?_PesoEstoque+2,w
  2373  0CBC  00C4               	movwf	___flmul@a+2
  2374  0CBD  0833               	movf	?_PesoEstoque+1,w
  2375  0CBE  00C3               	movwf	___flmul@a+1
  2376  0CBF  0832               	movf	?_PesoEstoque,w
  2377  0CC0  00C2               	movwf	___flmul@a
  2378  0CC1  3042               	movlw	66
  2379  0CC2  00C1               	movwf	___flmul@b+3
  2380  0CC3  30C8               	movlw	200
  2381  0CC4  00C0               	movwf	___flmul@b+2
  2382  0CC5  3000               	movlw	0
  2383  0CC6  00BF               	movwf	___flmul@b+1
  2384  0CC7  3000               	movlw	0
  2385  0CC8  00BE               	movwf	___flmul@b
  2386  0CC9  120A  118A  202D  120A  158A  	fcall	___flmul
  2387  0CCE  1283               	bcf	3,5	;RP0=0, select bank0
  2388  0CCF  1303               	bcf	3,6	;RP1=0, select bank0
  2389  0CD0  0841               	movf	?___flmul+3,w
  2390  0CD1  00DF               	movwf	___fldiv@b+3
  2391  0CD2  0840               	movf	?___flmul+2,w
  2392  0CD3  00DE               	movwf	___fldiv@b+2
  2393  0CD4  083F               	movf	?___flmul+1,w
  2394  0CD5  00DD               	movwf	___fldiv@b+1
  2395  0CD6  083E               	movf	?___flmul,w
  2396  0CD7  00DC               	movwf	___fldiv@b
  2397  0CD8  3043               	movlw	67
  2398  0CD9  00DB               	movwf	___fldiv@a+3
  2399  0CDA  307F               	movlw	127
  2400  0CDB  00DA               	movwf	___fldiv@a+2
  2401  0CDC  3000               	movlw	0
  2402  0CDD  00D9               	movwf	___fldiv@a+1
  2403  0CDE  3000               	movlw	0
  2404  0CDF  00D8               	movwf	___fldiv@a
  2405  0CE0  120A  118A  238E  120A  158A  	fcall	___fldiv
  2406  0CE5  1283               	bcf	3,5	;RP0=0, select bank0
  2407  0CE6  1303               	bcf	3,6	;RP1=0, select bank0
  2408  0CE7  085B               	movf	?___fldiv+3,w
  2409  0CE8  1683               	bsf	3,5	;RP0=1, select bank1
  2410  0CE9  1303               	bcf	3,6	;RP1=0, select bank1
  2411  0CEA  00B0               	movwf	(___fltol@f1+3)^(0+128)
  2412  0CEB  1283               	bcf	3,5	;RP0=0, select bank0
  2413  0CEC  1303               	bcf	3,6	;RP1=0, select bank0
  2414  0CED  085A               	movf	?___fldiv+2,w
  2415  0CEE  1683               	bsf	3,5	;RP0=1, select bank1
  2416  0CEF  1303               	bcf	3,6	;RP1=0, select bank1
  2417  0CF0  00AF               	movwf	(___fltol@f1+2)^(0+128)
  2418  0CF1  1283               	bcf	3,5	;RP0=0, select bank0
  2419  0CF2  1303               	bcf	3,6	;RP1=0, select bank0
  2420  0CF3  0859               	movf	?___fldiv+1,w
  2421  0CF4  1683               	bsf	3,5	;RP0=1, select bank1
  2422  0CF5  1303               	bcf	3,6	;RP1=0, select bank1
  2423  0CF6  00AE               	movwf	(___fltol@f1+1)^(0+128)
  2424  0CF7  1283               	bcf	3,5	;RP0=0, select bank0
  2425  0CF8  1303               	bcf	3,6	;RP1=0, select bank0
  2426  0CF9  0858               	movf	?___fldiv,w
  2427  0CFA  1683               	bsf	3,5	;RP0=1, select bank1
  2428  0CFB  1303               	bcf	3,6	;RP1=0, select bank1
  2429  0CFC  00AD               	movwf	___fltol@f1^(0+128)
  2430  0CFD  120A  158A  2215  120A  158A  	fcall	___fltol
  2431  0D02  1683               	bsf	3,5	;RP0=1, select bank1
  2432  0D03  1303               	bcf	3,6	;RP1=0, select bank1
  2433  0D04  082E               	movf	(?___fltol+1)^(0+128),w
  2434  0D05  00DF               	movwf	(_aux_estoque+1)^(0+128)
  2435  0D06  082D               	movf	?___fltol^(0+128),w
  2436  0D07  00DE               	movwf	_aux_estoque^(0+128)
  2437  0D08                     l2887:
  2438                           
  2439                           ;newmain.c: 124:         if(aux_aviso == 1){
  2440  0D08  035C               	decf	_aux_aviso^(0+128),w
  2441  0D09  045D               	iorwf	(_aux_aviso+1)^(0+128),w
  2442  0D0A  1D03               	btfss	3,2
  2443  0D0B  2D0D               	goto	u3761
  2444  0D0C  2D0E               	goto	u3760
  2445  0D0D                     u3761:
  2446  0D0D  2D1C               	goto	l2891
  2447  0D0E                     u3760:
  2448  0D0E                     l2889:
  2449                           
  2450                           ;newmain.c: 125:             _delay((unsigned long)((2000)*(4000000/4000.0)));
  2451  0D0E  300B               	movlw	11
  2452  0D0F  1683               	bsf	3,5	;RP0=1, select bank1
  2453  0D10  1303               	bcf	3,6	;RP1=0, select bank1
  2454  0D11  00C0               	movwf	(??_Lcd_Padrao^(0+128)+2)
  2455  0D12  3026               	movlw	38
  2456  0D13  00BF               	movwf	(??_Lcd_Padrao^(0+128)+1)
  2457  0D14  305D               	movlw	93
  2458  0D15  00BE               	movwf	??_Lcd_Padrao^(0+128)
  2459  0D16                     u4007:
  2460  0D16  0BBE               	decfsz	??_Lcd_Padrao^(0+128),f
  2461  0D17  2D16               	goto	u4007
  2462  0D18  0BBF               	decfsz	(??_Lcd_Padrao^(0+128)+1),f
  2463  0D19  2D16               	goto	u4007
  2464  0D1A  0BC0               	decfsz	(??_Lcd_Padrao^(0+128)+2),f
  2465  0D1B  2D16               	goto	u4007
  2466  0D1C                     l2891:
  2467                           
  2468                           ;newmain.c: 127:         aux_aviso = 0;
  2469  0D1C  1683               	bsf	3,5	;RP0=1, select bank1
  2470  0D1D  1303               	bcf	3,6	;RP1=0, select bank1
  2471  0D1E  01DC               	clrf	_aux_aviso^(0+128)
  2472  0D1F  01DD               	clrf	(_aux_aviso+1)^(0+128)
  2473  0D20  0064               	clrwdt	;# 
  2474  0D21                     l2893:
  2475                           
  2476                           ;newmain.c: 130:     if(aux_cambuca != nivel_cambuca || aux_estoque != nivel_estoque){
  2477  0D21  1683               	bsf	3,5	;RP0=1, select bank1
  2478  0D22  1303               	bcf	3,6	;RP1=0, select bank1
  2479  0D23  0856               	movf	(Lcd_Padrao@nivel_cambuca+1)^(0+128),w
  2480  0D24  0661               	xorwf	(_aux_cambuca+1)^(0+128),w
  2481  0D25  1D03               	skipz
  2482  0D26  2D29               	goto	u3775
  2483  0D27  0855               	movf	Lcd_Padrao@nivel_cambuca^(0+128),w
  2484  0D28  0660               	xorwf	_aux_cambuca^(0+128),w
  2485  0D29                     u3775:
  2486  0D29  1D03               	skipz
  2487  0D2A  2D2C               	goto	u3771
  2488  0D2B  2D2D               	goto	u3770
  2489  0D2C                     u3771:
  2490  0D2C  2D37               	goto	l2897
  2491  0D2D                     u3770:
  2492  0D2D                     l2895:
  2493  0D2D  0858               	movf	(Lcd_Padrao@nivel_estoque+1)^(0+128),w
  2494  0D2E  065F               	xorwf	(_aux_estoque+1)^(0+128),w
  2495  0D2F  1D03               	skipz
  2496  0D30  2D33               	goto	u3785
  2497  0D31  0857               	movf	Lcd_Padrao@nivel_estoque^(0+128),w
  2498  0D32  065E               	xorwf	_aux_estoque^(0+128),w
  2499  0D33                     u3785:
  2500  0D33  1903               	skipnz
  2501  0D34  2D36               	goto	u3781
  2502  0D35  2D37               	goto	u3780
  2503  0D36                     u3781:
  2504  0D36  2DA1               	goto	l144
  2505  0D37                     u3780:
  2506  0D37                     l2897:
  2507                           
  2508                           ;newmain.c: 131:         aux_cambuca = nivel_cambuca;
  2509  0D37  0856               	movf	(Lcd_Padrao@nivel_cambuca+1)^(0+128),w
  2510  0D38  00E1               	movwf	(_aux_cambuca+1)^(0+128)
  2511  0D39  0855               	movf	Lcd_Padrao@nivel_cambuca^(0+128),w
  2512  0D3A  00E0               	movwf	_aux_cambuca^(0+128)
  2513                           
  2514                           ;newmain.c: 132:         aux_estoque = nivel_estoque;
  2515  0D3B  0858               	movf	(Lcd_Padrao@nivel_estoque+1)^(0+128),w
  2516  0D3C  00DF               	movwf	(_aux_estoque+1)^(0+128)
  2517  0D3D  0857               	movf	Lcd_Padrao@nivel_estoque^(0+128),w
  2518  0D3E  00DE               	movwf	_aux_estoque^(0+128)
  2519  0D3F                     l2899:
  2520                           
  2521                           ;newmain.c: 133:         sprintf(buffer, "Estoque = %d%%", nivel_estoque);
  2522  0D3F  303B               	movlw	(low ((STR_3-__stringbase)| (0+32768)))& (0+255)
  2523  0D40  00BE               	movwf	??_Lcd_Padrao^(0+128)
  2524  0D41  083E               	movf	??_Lcd_Padrao^(0+128),w
  2525  0D42  1283               	bcf	3,5	;RP0=0, select bank0
  2526  0D43  1303               	bcf	3,6	;RP1=0, select bank0
  2527  0D44  00B2               	movwf	sprintf@f
  2528  0D45  1683               	bsf	3,5	;RP0=1, select bank1
  2529  0D46  1303               	bcf	3,6	;RP1=0, select bank1
  2530  0D47  0858               	movf	(Lcd_Padrao@nivel_estoque+1)^(0+128),w
  2531  0D48  1283               	bcf	3,5	;RP0=0, select bank0
  2532  0D49  1303               	bcf	3,6	;RP1=0, select bank0
  2533  0D4A  00B4               	movwf	?_sprintf+2
  2534  0D4B  1683               	bsf	3,5	;RP0=1, select bank1
  2535  0D4C  1303               	bcf	3,6	;RP1=0, select bank1
  2536  0D4D  0857               	movf	Lcd_Padrao@nivel_estoque^(0+128),w
  2537  0D4E  1283               	bcf	3,5	;RP0=0, select bank0
  2538  0D4F  1303               	bcf	3,6	;RP1=0, select bank0
  2539  0D50  00B3               	movwf	?_sprintf+1
  2540  0D51  30C1               	movlw	(low (Lcd_Padrao@buffer| 0))& (0+255)
  2541  0D52  120A  118A  262E  120A  158A  	fcall	_sprintf
  2542  0D57                     l2901:
  2543                           
  2544                           ;newmain.c: 134:         Lcd_Clear();
  2545  0D57  160A  118A  24F7  120A  158A  	fcall	_Lcd_Clear
  2546  0D5C                     l2903:
  2547                           
  2548                           ;newmain.c: 135:         Lcd_Set_Cursor(1,1);
  2549  0D5C  1283               	bcf	3,5	;RP0=0, select bank0
  2550  0D5D  1303               	bcf	3,6	;RP1=0, select bank0
  2551  0D5E  01A8               	clrf	Lcd_Set_Cursor@b
  2552  0D5F  0AA8               	incf	Lcd_Set_Cursor@b,f
  2553  0D60  3001               	movlw	1
  2554  0D61  160A  118A  27A8  120A  158A  	fcall	_Lcd_Set_Cursor
  2555  0D66                     l2905:
  2556                           
  2557                           ;newmain.c: 136:         Lcd_Write_String(buffer);
  2558  0D66  30C1               	movlw	(low (Lcd_Padrao@buffer| 0))& (0+255)
  2559  0D67  1283               	bcf	3,5	;RP0=0, select bank0
  2560  0D68  1303               	bcf	3,6	;RP1=0, select bank0
  2561  0D69  00A9               	movwf	Lcd_Write_String@a
  2562  0D6A  3000               	movlw	0
  2563  0D6B  00AA               	movwf	Lcd_Write_String@a+1
  2564  0D6C  160A  118A  266E  120A  158A  	fcall	_Lcd_Write_String
  2565  0D71                     l2907:
  2566                           
  2567                           ;newmain.c: 137:         sprintf(buffer, "Cambuca = %d%%", nivel_cambuca);
  2568  0D71  302C               	movlw	(low ((STR_4-__stringbase)| (0+32768)))& (0+255)
  2569  0D72  1683               	bsf	3,5	;RP0=1, select bank1
  2570  0D73  1303               	bcf	3,6	;RP1=0, select bank1
  2571  0D74  00BE               	movwf	??_Lcd_Padrao^(0+128)
  2572  0D75  083E               	movf	??_Lcd_Padrao^(0+128),w
  2573  0D76  1283               	bcf	3,5	;RP0=0, select bank0
  2574  0D77  1303               	bcf	3,6	;RP1=0, select bank0
  2575  0D78  00B2               	movwf	sprintf@f
  2576  0D79  1683               	bsf	3,5	;RP0=1, select bank1
  2577  0D7A  1303               	bcf	3,6	;RP1=0, select bank1
  2578  0D7B  0856               	movf	(Lcd_Padrao@nivel_cambuca+1)^(0+128),w
  2579  0D7C  1283               	bcf	3,5	;RP0=0, select bank0
  2580  0D7D  1303               	bcf	3,6	;RP1=0, select bank0
  2581  0D7E  00B4               	movwf	?_sprintf+2
  2582  0D7F  1683               	bsf	3,5	;RP0=1, select bank1
  2583  0D80  1303               	bcf	3,6	;RP1=0, select bank1
  2584  0D81  0855               	movf	Lcd_Padrao@nivel_cambuca^(0+128),w
  2585  0D82  1283               	bcf	3,5	;RP0=0, select bank0
  2586  0D83  1303               	bcf	3,6	;RP1=0, select bank0
  2587  0D84  00B3               	movwf	?_sprintf+1
  2588  0D85  30C1               	movlw	(low (Lcd_Padrao@buffer| 0))& (0+255)
  2589  0D86  120A  118A  262E  120A  158A  	fcall	_sprintf
  2590  0D8B                     l2909:
  2591                           
  2592                           ;newmain.c: 138:         Lcd_Set_Cursor(2,1);
  2593  0D8B  1283               	bcf	3,5	;RP0=0, select bank0
  2594  0D8C  1303               	bcf	3,6	;RP1=0, select bank0
  2595  0D8D  01A8               	clrf	Lcd_Set_Cursor@b
  2596  0D8E  0AA8               	incf	Lcd_Set_Cursor@b,f
  2597  0D8F  3002               	movlw	2
  2598  0D90  160A  118A  27A8  120A  158A  	fcall	_Lcd_Set_Cursor
  2599  0D95                     l2911:
  2600                           
  2601                           ;newmain.c: 139:         Lcd_Write_String(buffer);
  2602  0D95  30C1               	movlw	(low (Lcd_Padrao@buffer| 0))& (0+255)
  2603  0D96  1283               	bcf	3,5	;RP0=0, select bank0
  2604  0D97  1303               	bcf	3,6	;RP1=0, select bank0
  2605  0D98  00A9               	movwf	Lcd_Write_String@a
  2606  0D99  3000               	movlw	0
  2607  0D9A  00AA               	movwf	Lcd_Write_String@a+1
  2608  0D9B  160A  118A  266E  120A  158A  	fcall	_Lcd_Write_String
  2609  0DA0  0064               	clrwdt	;# 
  2610  0DA1                     l144:
  2611  0DA1  0008               	return
  2612  0DA2                     __end_of_Lcd_Padrao:
  2613                           
  2614                           	psect	text3
  2615  062E                     __ptext3:	
  2616 ;; *************** function _sprintf *****************
  2617 ;; Defined at:
  2618 ;;		line 505 in file "C:\Program Files\Microchip\xc8\v2.36\pic\sources\c90\common\doprnt.c"
  2619 ;; Parameters:    Size  Location     Type
  2620 ;;  sp              1    wreg     PTR unsigned char 
  2621 ;;		 -> Lcd_Padrao@buffer(20), 
  2622 ;;  f               1   18[BANK0 ] PTR const unsigned char 
  2623 ;;		 -> STR_6(15), STR_5(15), STR_4(15), STR_3(15), 
  2624 ;; Auto vars:     Size  Location     Type
  2625 ;;  sp              1   29[BANK0 ] PTR unsigned char 
  2626 ;;		 -> Lcd_Padrao@buffer(20), 
  2627 ;;  tmpval          4    0        struct .
  2628 ;;  val             2   27[BANK0 ] unsigned int 
  2629 ;;  cp              2    0        PTR const unsigned char 
  2630 ;;  len             2    0        unsigned int 
  2631 ;;  c               1   30[BANK0 ] unsigned char 
  2632 ;;  prec            1   26[BANK0 ] char 
  2633 ;;  flag            1   25[BANK0 ] unsigned char 
  2634 ;;  ap              1   24[BANK0 ] PTR void [1]
  2635 ;;		 -> ?_sprintf(2), 
  2636 ;; Return value:  Size  Location     Type
  2637 ;;                  2   18[BANK0 ] int 
  2638 ;; Registers used:
  2639 ;;		wreg, fsr0l, fsr0h, status,2, status,0, btemp+1, pclath, cstack
  2640 ;; Tracked objects:
  2641 ;;		On entry : 0/0
  2642 ;;		On exit  : 0/0
  2643 ;;		Unchanged: 0/0
  2644 ;; Data sizes:     COMMON   BANK0   BANK1   BANK3   BANK2
  2645 ;;      Params:         0       3       0       0       0
  2646 ;;      Locals:         0       7       0       0       0
  2647 ;;      Temps:          0       3       0       0       0
  2648 ;;      Totals:         0      13       0       0       0
  2649 ;;Total ram usage:       13 bytes
  2650 ;; Hardware stack levels used: 1
  2651 ;; Hardware stack levels required when called: 5
  2652 ;; This function calls:
  2653 ;;		___lwdiv
  2654 ;;		___lwmod
  2655 ;; This function is called by:
  2656 ;;		_Lcd_Padrao
  2657 ;; This function uses a non-reentrant model
  2658 ;;
  2659                           
  2660  062E                     _sprintf:	
  2661                           ;psect for function _sprintf
  2662                           
  2663                           
  2664                           ;incstack = 0
  2665                           ; Regs used in _sprintf: [wreg-fsr0h+status,2+status,0+btemp+1+pclath+cstack]
  2666                           ;sprintf@sp stored from wreg
  2667  062E  1283               	bcf	3,5	;RP0=0, select bank0
  2668  062F  1303               	bcf	3,6	;RP1=0, select bank0
  2669  0630  00BD               	movwf	sprintf@sp
  2670  0631                     l2041:
  2671                           
  2672                           ;C:\Program Files\Microchip\xc8\v2.36\pic\sources\c90\common\doprnt.c: 505: sprintf(char
      +                           * sp, const char * f, ...);C:\Program Files\Microchip\xc8\v2.36\pic\sources\c90\common\
      +                          doprnt.c: 506: {;C:\Program Files\Microchip\xc8\v2.36\pic\sources\c90\common\doprnt.c: 5
      +                          07:  va_list ap;;C:\Program Files\Microchip\xc8\v2.36\pic\sources\c90\common\doprnt.c: 5
      +                          12:  char c;;C:\Program Files\Microchip\xc8\v2.36\pic\sources\c90\common\doprnt.c: 521: 
      +                           signed char prec;;C:\Program Files\Microchip\xc8\v2.36\pic\sources\c90\common\doprnt.c:
      +                           525:  unsigned char flag;
  2673  0631  3033               	movlw	(low ((?_sprintf| 0+1)))& (0+255)
  2674  0632  00B5               	movwf	??_sprintf
  2675  0633  0835               	movf	??_sprintf,w
  2676  0634  00B8               	movwf	sprintf@ap
  2677                           
  2678                           ;C:\Program Files\Microchip\xc8\v2.36\pic\sources\c90\common\doprnt.c: 553:  while((c = 
      +                          *f++)) {
  2679  0635  2F01               	goto	l2097
  2680  0636                     l2043:
  2681                           
  2682                           ;C:\Program Files\Microchip\xc8\v2.36\pic\sources\c90\common\doprnt.c: 555:   if(c != '%
      +                          ')
  2683  0636  3025               	movlw	37
  2684  0637  063E               	xorwf	sprintf@c,w
  2685  0638  1903               	btfsc	3,2
  2686  0639  2E3B               	goto	u2281
  2687  063A  2E3C               	goto	u2280
  2688  063B                     u2281:
  2689  063B  2E48               	goto	l2049
  2690  063C                     u2280:
  2691  063C                     l2045:
  2692                           
  2693                           ;C:\Program Files\Microchip\xc8\v2.36\pic\sources\c90\common\doprnt.c: 557:   {;C:\Progr
      +                          am Files\Microchip\xc8\v2.36\pic\sources\c90\common\doprnt.c: 558:    ((*sp++ = (c)));
  2694  063C  083E               	movf	sprintf@c,w
  2695  063D  00B5               	movwf	??_sprintf
  2696  063E  083D               	movf	sprintf@sp,w
  2697  063F  0084               	movwf	4
  2698  0640  0835               	movf	??_sprintf,w
  2699  0641  1383               	bcf	3,7	;select IRP bank0
  2700  0642  0080               	movwf	0
  2701  0643                     l2047:
  2702  0643  3001               	movlw	1
  2703  0644  00B5               	movwf	??_sprintf
  2704  0645  0835               	movf	??_sprintf,w
  2705  0646  07BD               	addwf	sprintf@sp,f
  2706                           
  2707                           ;C:\Program Files\Microchip\xc8\v2.36\pic\sources\c90\common\doprnt.c: 559:    continue;
  2708  0647  2F01               	goto	l2097
  2709  0648                     l2049:
  2710                           
  2711                           ;C:\Program Files\Microchip\xc8\v2.36\pic\sources\c90\common\doprnt.c: 565:   flag = 0;
  2712  0648  01B9               	clrf	sprintf@flag
  2713  0649                     l2057:	
  2714                           ;C:\Program Files\Microchip\xc8\v2.36\pic\sources\c90\common\doprnt.c: 661:   switch(c =
      +                           *f++) {
  2715                           
  2716  0649  3001               	movlw	1
  2717  064A  07B2               	addwf	sprintf@f,f
  2718  064B  30FF               	movlw	-1
  2719  064C  0732               	addwf	sprintf@f,w
  2720  064D  0084               	movwf	4
  2721  064E  120A  158A  200A  120A  118A  	fcall	stringdir
  2722  0653  00BE               	movwf	sprintf@c
  2723  0654  00B5               	movwf	??_sprintf
  2724  0655  01B6               	clrf	??_sprintf+1
  2725                           
  2726                           ; Switch on 2 bytes has been partitioned into a top level switch of size 1, and 1 sub-sw
      +                          itches
  2727                           ; Switch size 1, requested type "simple"
  2728                           ; Number of cases is 1, Range of values is 0 to 0
  2729                           ; switch strategies available:
  2730                           ; Name         Instructions Cycles
  2731                           ; simple_byte            4     3 (average)
  2732                           ; direct_byte           11     8 (fixed)
  2733                           ; jumptable            260     6 (fixed)
  2734                           ;	Chosen strategy is simple_byte
  2735  0656  0836               	movf	??_sprintf+1,w
  2736  0657  3A00               	xorlw	0	; case 0
  2737  0658  1903               	skipnz
  2738  0659  2E5B               	goto	l3105
  2739  065A  2E3C               	goto	l2045
  2740  065B                     l3105:
  2741                           
  2742                           ; Switch size 1, requested type "simple"
  2743                           ; Number of cases is 3, Range of values is 0 to 105
  2744                           ; switch strategies available:
  2745                           ; Name         Instructions Cycles
  2746                           ; simple_byte           10     6 (average)
  2747                           ; jumptable            260     6 (fixed)
  2748                           ;	Chosen strategy is simple_byte
  2749  065B  0835               	movf	??_sprintf,w
  2750  065C  3A00               	xorlw	0	; case 0
  2751  065D  1903               	skipnz
  2752  065E  2F13               	goto	l2099
  2753  065F  3A64               	xorlw	100	; case 100
  2754  0660  1903               	skipnz
  2755  0661  2E66               	goto	l2059
  2756  0662  3A0D               	xorlw	13	; case 105
  2757  0663  1903               	skipnz
  2758  0664  2E66               	goto	l2059
  2759  0665  2E3C               	goto	l2045
  2760  0666                     l2059:
  2761                           
  2762                           ;C:\Program Files\Microchip\xc8\v2.36\pic\sources\c90\common\doprnt.c: 1279:   {;C:\Prog
      +                          ram Files\Microchip\xc8\v2.36\pic\sources\c90\common\doprnt.c: 1285:     val = (unsigned
      +                           int)(*(int *)__va_arg((*(int **)ap), (int)0));
  2763  0666  0838               	movf	sprintf@ap,w
  2764  0667  0084               	movwf	4
  2765  0668  1383               	bcf	3,7	;select IRP bank0
  2766  0669  0800               	movf	0,w
  2767  066A  00BB               	movwf	sprintf@val
  2768  066B  0A84               	incf	4,f
  2769  066C  0800               	movf	0,w
  2770  066D  00BC               	movwf	sprintf@val+1
  2771  066E                     l2061:
  2772  066E  3002               	movlw	2
  2773  066F  00B5               	movwf	??_sprintf
  2774  0670  0835               	movf	??_sprintf,w
  2775  0671  07B8               	addwf	sprintf@ap,f
  2776  0672                     l2063:
  2777                           
  2778                           ;C:\Program Files\Microchip\xc8\v2.36\pic\sources\c90\common\doprnt.c: 1287:    if((int)
      +                          val < 0) {
  2779  0672  1FBC               	btfss	sprintf@val+1,7
  2780  0673  2E75               	goto	u2291
  2781  0674  2E76               	goto	u2290
  2782  0675                     u2291:
  2783  0675  2E7F               	goto	l2069
  2784  0676                     u2290:
  2785  0676                     l2065:
  2786                           
  2787                           ;C:\Program Files\Microchip\xc8\v2.36\pic\sources\c90\common\doprnt.c: 1288:     flag |=
      +                           0x03;
  2788  0676  3003               	movlw	3
  2789  0677  00B5               	movwf	??_sprintf
  2790  0678  0835               	movf	??_sprintf,w
  2791  0679  04B9               	iorwf	sprintf@flag,f
  2792  067A                     l2067:
  2793                           
  2794                           ;C:\Program Files\Microchip\xc8\v2.36\pic\sources\c90\common\doprnt.c: 1289:     val = -
      +                          val;
  2795  067A  09BB               	comf	sprintf@val,f
  2796  067B  09BC               	comf	sprintf@val+1,f
  2797  067C  0ABB               	incf	sprintf@val,f
  2798  067D  1903               	skipnz
  2799  067E  0ABC               	incf	sprintf@val+1,f
  2800  067F                     l2069:
  2801                           
  2802                           ;C:\Program Files\Microchip\xc8\v2.36\pic\sources\c90\common\doprnt.c: 1292:   };C:\Prog
      +                          ram Files\Microchip\xc8\v2.36\pic\sources\c90\common\doprnt.c: 1331:    for(c = 1 ; c !=
      +                           sizeof dpowers/sizeof dpowers[0] ; c++)
  2803  067F  01BE               	clrf	sprintf@c
  2804  0680  0ABE               	incf	sprintf@c,f
  2805  0681                     l2075:
  2806                           
  2807                           ;C:\Program Files\Microchip\xc8\v2.36\pic\sources\c90\common\doprnt.c: 1332:     if(val 
      +                          < dpowers[c])
  2808  0681  083E               	movf	sprintf@c,w
  2809  0682  00B5               	movwf	??_sprintf
  2810  0683  0735               	addwf	??_sprintf,w
  2811  0684  3E01               	addlw	low ((_dpowers-__stringbase)| (0+32768))
  2812  0685  0084               	movwf	4
  2813  0686  120A  158A  200A  120A  118A  	fcall	stringdir
  2814  068B  00B6               	movwf	??_sprintf+1
  2815  068C  120A  158A  200A  120A  118A  	fcall	stringdir
  2816  0691  00B7               	movwf	??_sprintf+2
  2817  0692  0837               	movf	??_sprintf+2,w
  2818  0693  023C               	subwf	sprintf@val+1,w
  2819  0694  1D03               	skipz
  2820  0695  2E98               	goto	u2305
  2821  0696  0836               	movf	??_sprintf+1,w
  2822  0697  023B               	subwf	sprintf@val,w
  2823  0698                     u2305:
  2824  0698  1803               	skipnc
  2825  0699  2E9B               	goto	u2301
  2826  069A  2E9C               	goto	u2300
  2827  069B                     u2301:
  2828  069B  2E9D               	goto	l2079
  2829  069C                     u2300:
  2830  069C  2EA7               	goto	l2081
  2831  069D                     l2079:
  2832  069D  3001               	movlw	1
  2833  069E  00B5               	movwf	??_sprintf
  2834  069F  0835               	movf	??_sprintf,w
  2835  06A0  07BE               	addwf	sprintf@c,f
  2836  06A1  3005               	movlw	5
  2837  06A2  063E               	xorwf	sprintf@c,w
  2838  06A3  1D03               	btfss	3,2
  2839  06A4  2EA6               	goto	u2311
  2840  06A5  2EA7               	goto	u2310
  2841  06A6                     u2311:
  2842  06A6  2E81               	goto	l2075
  2843  06A7                     u2310:
  2844  06A7                     l2081:
  2845                           
  2846                           ;C:\Program Files\Microchip\xc8\v2.36\pic\sources\c90\common\doprnt.c: 1448:   {;C:\Prog
      +                          ram Files\Microchip\xc8\v2.36\pic\sources\c90\common\doprnt.c: 1464:    if(flag & 0x03)
  2847  06A7  0839               	movf	sprintf@flag,w
  2848  06A8  3903               	andlw	3
  2849  06A9  1903               	btfsc	3,2
  2850  06AA  2EAC               	goto	u2321
  2851  06AB  2EAD               	goto	u2320
  2852  06AC                     u2321:
  2853  06AC  2EB8               	goto	l2087
  2854  06AD                     u2320:
  2855  06AD                     l2083:
  2856                           
  2857                           ;C:\Program Files\Microchip\xc8\v2.36\pic\sources\c90\common\doprnt.c: 1465:     ((*sp++
      +                           = ('-')));
  2858  06AD  302D               	movlw	45
  2859  06AE  00B5               	movwf	??_sprintf
  2860  06AF  083D               	movf	sprintf@sp,w
  2861  06B0  0084               	movwf	4
  2862  06B1  0835               	movf	??_sprintf,w
  2863  06B2  1383               	bcf	3,7	;select IRP bank0
  2864  06B3  0080               	movwf	0
  2865  06B4                     l2085:
  2866  06B4  3001               	movlw	1
  2867  06B5  00B5               	movwf	??_sprintf
  2868  06B6  0835               	movf	??_sprintf,w
  2869  06B7  07BD               	addwf	sprintf@sp,f
  2870  06B8                     l2087:
  2871                           
  2872                           ;C:\Program Files\Microchip\xc8\v2.36\pic\sources\c90\common\doprnt.c: 1495:   };C:\Prog
      +                          ram Files\Microchip\xc8\v2.36\pic\sources\c90\common\doprnt.c: 1498:   prec = c;
  2873  06B8  083E               	movf	sprintf@c,w
  2874  06B9  00B5               	movwf	??_sprintf
  2875  06BA  0835               	movf	??_sprintf,w
  2876  06BB  00BA               	movwf	sprintf@prec
  2877                           
  2878                           ;C:\Program Files\Microchip\xc8\v2.36\pic\sources\c90\common\doprnt.c: 1500:   while(pre
      +                          c--) {
  2879  06BC  2EF8               	goto	l2095
  2880  06BD                     l2089:
  2881                           
  2882                           ;C:\Program Files\Microchip\xc8\v2.36\pic\sources\c90\common\doprnt.c: 1504:    {;C:\Pro
      +                          gram Files\Microchip\xc8\v2.36\pic\sources\c90\common\doprnt.c: 1515:     c = (val / dpo
      +                          wers[(unsigned char)prec]) % 10 + '0';
  2883  06BD  300A               	movlw	10
  2884  06BE  00AC               	movwf	___lwmod@divisor
  2885  06BF  3000               	movlw	0
  2886  06C0  00AD               	movwf	___lwmod@divisor+1
  2887  06C1  083A               	movf	sprintf@prec,w
  2888  06C2  00B5               	movwf	??_sprintf
  2889  06C3  0735               	addwf	??_sprintf,w
  2890  06C4  3E01               	addlw	low ((_dpowers-__stringbase)| (0+32768))
  2891  06C5  0084               	movwf	4
  2892  06C6  120A  158A  200A  120A  118A  	fcall	stringdir
  2893  06CB  00A4               	movwf	___lwdiv@divisor
  2894  06CC  120A  158A  200A  120A  118A  	fcall	stringdir
  2895  06D1  00A5               	movwf	___lwdiv@divisor+1
  2896  06D2  083C               	movf	sprintf@val+1,w
  2897  06D3  00A7               	movwf	___lwdiv@dividend+1
  2898  06D4  083B               	movf	sprintf@val,w
  2899  06D5  00A6               	movwf	___lwdiv@dividend
  2900  06D6  160A  118A  26B4  120A  118A  	fcall	___lwdiv
  2901  06DB  1283               	bcf	3,5	;RP0=0, select bank0
  2902  06DC  1303               	bcf	3,6	;RP1=0, select bank0
  2903  06DD  0825               	movf	?___lwdiv+1,w
  2904  06DE  00AF               	movwf	___lwmod@dividend+1
  2905  06DF  0824               	movf	?___lwdiv,w
  2906  06E0  00AE               	movwf	___lwmod@dividend
  2907  06E1  160A  118A  25B3  120A  118A  	fcall	___lwmod
  2908  06E6  1283               	bcf	3,5	;RP0=0, select bank0
  2909  06E7  1303               	bcf	3,6	;RP1=0, select bank0
  2910  06E8  082C               	movf	?___lwmod,w
  2911  06E9  3E30               	addlw	48
  2912  06EA  00B6               	movwf	??_sprintf+1
  2913  06EB  0836               	movf	??_sprintf+1,w
  2914  06EC  00BE               	movwf	sprintf@c
  2915  06ED                     l2091:
  2916                           
  2917                           ;C:\Program Files\Microchip\xc8\v2.36\pic\sources\c90\common\doprnt.c: 1549:    };C:\Pro
      +                          gram Files\Microchip\xc8\v2.36\pic\sources\c90\common\doprnt.c: 1550:    ((*sp++ = (c)))
      +                          ;
  2918  06ED  083E               	movf	sprintf@c,w
  2919  06EE  00B5               	movwf	??_sprintf
  2920  06EF  083D               	movf	sprintf@sp,w
  2921  06F0  0084               	movwf	4
  2922  06F1  0835               	movf	??_sprintf,w
  2923  06F2  1383               	bcf	3,7	;select IRP bank0
  2924  06F3  0080               	movwf	0
  2925  06F4                     l2093:
  2926  06F4  3001               	movlw	1
  2927  06F5  00B5               	movwf	??_sprintf
  2928  06F6  0835               	movf	??_sprintf,w
  2929  06F7  07BD               	addwf	sprintf@sp,f
  2930  06F8                     l2095:
  2931                           
  2932                           ;C:\Program Files\Microchip\xc8\v2.36\pic\sources\c90\common\doprnt.c: 1500:   while(pre
      +                          c--) {
  2933  06F8  30FF               	movlw	255
  2934  06F9  00B5               	movwf	??_sprintf
  2935  06FA  0835               	movf	??_sprintf,w
  2936  06FB  07BA               	addwf	sprintf@prec,f
  2937  06FC  0A3A               	incf	sprintf@prec,w
  2938  06FD  1D03               	btfss	3,2
  2939  06FE  2F00               	goto	u2331
  2940  06FF  2F01               	goto	u2330
  2941  0700                     u2331:
  2942  0700  2EBD               	goto	l2089
  2943  0701                     u2330:
  2944  0701                     l2097:
  2945                           
  2946                           ;C:\Program Files\Microchip\xc8\v2.36\pic\sources\c90\common\doprnt.c: 553:  while((c = 
      +                          *f++)) {
  2947  0701  3001               	movlw	1
  2948  0702  07B2               	addwf	sprintf@f,f
  2949  0703  30FF               	movlw	-1
  2950  0704  0732               	addwf	sprintf@f,w
  2951  0705  0084               	movwf	4
  2952  0706  120A  158A  200A  120A  118A  	fcall	stringdir
  2953  070B  00B5               	movwf	??_sprintf
  2954  070C  0835               	movf	??_sprintf,w
  2955  070D  00BE               	movwf	sprintf@c
  2956  070E  083E               	movf	sprintf@c,w
  2957  070F  1D03               	btfss	3,2
  2958  0710  2F12               	goto	u2341
  2959  0711  2F13               	goto	u2340
  2960  0712                     u2341:
  2961  0712  2E36               	goto	l2043
  2962  0713                     u2340:
  2963  0713                     l2099:
  2964                           
  2965                           ;C:\Program Files\Microchip\xc8\v2.36\pic\sources\c90\common\doprnt.c: 1564:  *sp = 0;
  2966  0713  083D               	movf	sprintf@sp,w
  2967  0714  0084               	movwf	4
  2968  0715  1383               	bcf	3,7	;select IRP bank0
  2969  0716  0180               	clrf	0
  2970  0717                     l291:
  2971  0717  0008               	return
  2972  0718                     __end_of_sprintf:
  2973                           
  2974                           	psect	text4
  2975  15B3                     __ptext4:	
  2976 ;; *************** function ___lwmod *****************
  2977 ;; Defined at:
  2978 ;;		line 5 in file "C:\Program Files\Microchip\xc8\v2.36\pic\sources\c90\common\lwmod.c"
  2979 ;; Parameters:    Size  Location     Type
  2980 ;;  divisor         2   12[BANK0 ] unsigned int 
  2981 ;;  dividend        2   14[BANK0 ] unsigned int 
  2982 ;; Auto vars:     Size  Location     Type
  2983 ;;  counter         1   17[BANK0 ] unsigned char 
  2984 ;; Return value:  Size  Location     Type
  2985 ;;                  2   12[BANK0 ] unsigned int 
  2986 ;; Registers used:
  2987 ;;		wreg, status,2, status,0
  2988 ;; Tracked objects:
  2989 ;;		On entry : 0/0
  2990 ;;		On exit  : 0/0
  2991 ;;		Unchanged: 0/0
  2992 ;; Data sizes:     COMMON   BANK0   BANK1   BANK3   BANK2
  2993 ;;      Params:         0       4       0       0       0
  2994 ;;      Locals:         0       1       0       0       0
  2995 ;;      Temps:          0       1       0       0       0
  2996 ;;      Totals:         0       6       0       0       0
  2997 ;;Total ram usage:        6 bytes
  2998 ;; Hardware stack levels used: 1
  2999 ;; Hardware stack levels required when called: 4
  3000 ;; This function calls:
  3001 ;;		Nothing
  3002 ;; This function is called by:
  3003 ;;		_sprintf
  3004 ;; This function uses a non-reentrant model
  3005 ;;
  3006                           
  3007  15B3                     ___lwmod:	
  3008                           ;psect for function ___lwmod
  3009                           
  3010  15B3                     l1889:	
  3011                           ;incstack = 0
  3012                           ; Regs used in ___lwmod: [wreg+status,2+status,0]
  3013                           
  3014  15B3  1283               	bcf	3,5	;RP0=0, select bank0
  3015  15B4  1303               	bcf	3,6	;RP1=0, select bank0
  3016  15B5  082C               	movf	___lwmod@divisor,w
  3017  15B6  042D               	iorwf	___lwmod@divisor+1,w
  3018  15B7  1903               	btfsc	3,2
  3019  15B8  2DBA               	goto	u1941
  3020  15B9  2DBB               	goto	u1940
  3021  15BA                     u1941:
  3022  15BA  2DEA               	goto	l1907
  3023  15BB                     u1940:
  3024  15BB                     l1891:
  3025  15BB  01B1               	clrf	___lwmod@counter
  3026  15BC  0AB1               	incf	___lwmod@counter,f
  3027  15BD  2DC9               	goto	l1897
  3028  15BE                     l1893:
  3029  15BE  3001               	movlw	1
  3030  15BF                     u1955:
  3031  15BF  1003               	clrc
  3032  15C0  0DAC               	rlf	___lwmod@divisor,f
  3033  15C1  0DAD               	rlf	___lwmod@divisor+1,f
  3034  15C2  3EFF               	addlw	-1
  3035  15C3  1D03               	skipz
  3036  15C4  2DBF               	goto	u1955
  3037  15C5                     l1895:
  3038  15C5  3001               	movlw	1
  3039  15C6  00B0               	movwf	??___lwmod
  3040  15C7  0830               	movf	??___lwmod,w
  3041  15C8  07B1               	addwf	___lwmod@counter,f
  3042  15C9                     l1897:
  3043  15C9  1FAD               	btfss	___lwmod@divisor+1,7
  3044  15CA  2DCC               	goto	u1961
  3045  15CB  2DCD               	goto	u1960
  3046  15CC                     u1961:
  3047  15CC  2DBE               	goto	l1893
  3048  15CD                     u1960:
  3049  15CD                     l1899:
  3050  15CD  082D               	movf	___lwmod@divisor+1,w
  3051  15CE  022F               	subwf	___lwmod@dividend+1,w
  3052  15CF  1D03               	skipz
  3053  15D0  2DD3               	goto	u1975
  3054  15D1  082C               	movf	___lwmod@divisor,w
  3055  15D2  022E               	subwf	___lwmod@dividend,w
  3056  15D3                     u1975:
  3057  15D3  1C03               	skipc
  3058  15D4  2DD6               	goto	u1971
  3059  15D5  2DD7               	goto	u1970
  3060  15D6                     u1971:
  3061  15D6  2DDD               	goto	l1903
  3062  15D7                     u1970:
  3063  15D7                     l1901:
  3064  15D7  082C               	movf	___lwmod@divisor,w
  3065  15D8  02AE               	subwf	___lwmod@dividend,f
  3066  15D9  082D               	movf	___lwmod@divisor+1,w
  3067  15DA  1C03               	skipc
  3068  15DB  03AF               	decf	___lwmod@dividend+1,f
  3069  15DC  02AF               	subwf	___lwmod@dividend+1,f
  3070  15DD                     l1903:
  3071  15DD  3001               	movlw	1
  3072  15DE                     u1985:
  3073  15DE  1003               	clrc
  3074  15DF  0CAD               	rrf	___lwmod@divisor+1,f
  3075  15E0  0CAC               	rrf	___lwmod@divisor,f
  3076  15E1  3EFF               	addlw	-1
  3077  15E2  1D03               	skipz
  3078  15E3  2DDE               	goto	u1985
  3079  15E4                     l1905:
  3080  15E4  3001               	movlw	1
  3081  15E5  02B1               	subwf	___lwmod@counter,f
  3082  15E6  1D03               	btfss	3,2
  3083  15E7  2DE9               	goto	u1991
  3084  15E8  2DEA               	goto	u1990
  3085  15E9                     u1991:
  3086  15E9  2DCD               	goto	l1899
  3087  15EA                     u1990:
  3088  15EA                     l1907:
  3089  15EA  082F               	movf	___lwmod@dividend+1,w
  3090  15EB  00AD               	movwf	?___lwmod+1
  3091  15EC  082E               	movf	___lwmod@dividend,w
  3092  15ED  00AC               	movwf	?___lwmod
  3093  15EE                     l577:
  3094  15EE  0008               	return
  3095  15EF                     __end_of___lwmod:
  3096                           
  3097                           	psect	text5
  3098  16B4                     __ptext5:	
  3099 ;; *************** function ___lwdiv *****************
  3100 ;; Defined at:
  3101 ;;		line 5 in file "C:\Program Files\Microchip\xc8\v2.36\pic\sources\c90\common\lwdiv.c"
  3102 ;; Parameters:    Size  Location     Type
  3103 ;;  divisor         2    4[BANK0 ] unsigned int 
  3104 ;;  dividend        2    6[BANK0 ] unsigned int 
  3105 ;; Auto vars:     Size  Location     Type
  3106 ;;  quotient        2    9[BANK0 ] unsigned int 
  3107 ;;  counter         1   11[BANK0 ] unsigned char 
  3108 ;; Return value:  Size  Location     Type
  3109 ;;                  2    4[BANK0 ] unsigned int 
  3110 ;; Registers used:
  3111 ;;		wreg, status,2, status,0
  3112 ;; Tracked objects:
  3113 ;;		On entry : 0/0
  3114 ;;		On exit  : 0/0
  3115 ;;		Unchanged: 0/0
  3116 ;; Data sizes:     COMMON   BANK0   BANK1   BANK3   BANK2
  3117 ;;      Params:         0       4       0       0       0
  3118 ;;      Locals:         0       3       0       0       0
  3119 ;;      Temps:          0       1       0       0       0
  3120 ;;      Totals:         0       8       0       0       0
  3121 ;;Total ram usage:        8 bytes
  3122 ;; Hardware stack levels used: 1
  3123 ;; Hardware stack levels required when called: 4
  3124 ;; This function calls:
  3125 ;;		Nothing
  3126 ;; This function is called by:
  3127 ;;		_sprintf
  3128 ;; This function uses a non-reentrant model
  3129 ;;
  3130                           
  3131  16B4                     ___lwdiv:	
  3132                           ;psect for function ___lwdiv
  3133                           
  3134  16B4                     l1863:	
  3135                           ;incstack = 0
  3136                           ; Regs used in ___lwdiv: [wreg+status,2+status,0]
  3137                           
  3138  16B4  1283               	bcf	3,5	;RP0=0, select bank0
  3139  16B5  1303               	bcf	3,6	;RP1=0, select bank0
  3140  16B6  01A9               	clrf	___lwdiv@quotient
  3141  16B7  01AA               	clrf	___lwdiv@quotient+1
  3142  16B8                     l1865:
  3143  16B8  0824               	movf	___lwdiv@divisor,w
  3144  16B9  0425               	iorwf	___lwdiv@divisor+1,w
  3145  16BA  1903               	btfsc	3,2
  3146  16BB  2EBD               	goto	u1871
  3147  16BC  2EBE               	goto	u1870
  3148  16BD                     u1871:
  3149  16BD  2EF5               	goto	l1885
  3150  16BE                     u1870:
  3151  16BE                     l1867:
  3152  16BE  01AB               	clrf	___lwdiv@counter
  3153  16BF  0AAB               	incf	___lwdiv@counter,f
  3154  16C0  2ECC               	goto	l1873
  3155  16C1                     l1869:
  3156  16C1  3001               	movlw	1
  3157  16C2                     u1885:
  3158  16C2  1003               	clrc
  3159  16C3  0DA4               	rlf	___lwdiv@divisor,f
  3160  16C4  0DA5               	rlf	___lwdiv@divisor+1,f
  3161  16C5  3EFF               	addlw	-1
  3162  16C6  1D03               	skipz
  3163  16C7  2EC2               	goto	u1885
  3164  16C8                     l1871:
  3165  16C8  3001               	movlw	1
  3166  16C9  00A8               	movwf	??___lwdiv
  3167  16CA  0828               	movf	??___lwdiv,w
  3168  16CB  07AB               	addwf	___lwdiv@counter,f
  3169  16CC                     l1873:
  3170  16CC  1FA5               	btfss	___lwdiv@divisor+1,7
  3171  16CD  2ECF               	goto	u1891
  3172  16CE  2ED0               	goto	u1890
  3173  16CF                     u1891:
  3174  16CF  2EC1               	goto	l1869
  3175  16D0                     u1890:
  3176  16D0                     l1875:
  3177  16D0  3001               	movlw	1
  3178  16D1                     u1905:
  3179  16D1  1003               	clrc
  3180  16D2  0DA9               	rlf	___lwdiv@quotient,f
  3181  16D3  0DAA               	rlf	___lwdiv@quotient+1,f
  3182  16D4  3EFF               	addlw	-1
  3183  16D5  1D03               	skipz
  3184  16D6  2ED1               	goto	u1905
  3185  16D7  0825               	movf	___lwdiv@divisor+1,w
  3186  16D8  0227               	subwf	___lwdiv@dividend+1,w
  3187  16D9  1D03               	skipz
  3188  16DA  2EDD               	goto	u1915
  3189  16DB  0824               	movf	___lwdiv@divisor,w
  3190  16DC  0226               	subwf	___lwdiv@dividend,w
  3191  16DD                     u1915:
  3192  16DD  1C03               	skipc
  3193  16DE  2EE0               	goto	u1911
  3194  16DF  2EE1               	goto	u1910
  3195  16E0                     u1911:
  3196  16E0  2EE8               	goto	l1881
  3197  16E1                     u1910:
  3198  16E1                     l1877:
  3199  16E1  0824               	movf	___lwdiv@divisor,w
  3200  16E2  02A6               	subwf	___lwdiv@dividend,f
  3201  16E3  0825               	movf	___lwdiv@divisor+1,w
  3202  16E4  1C03               	skipc
  3203  16E5  03A7               	decf	___lwdiv@dividend+1,f
  3204  16E6  02A7               	subwf	___lwdiv@dividend+1,f
  3205  16E7                     l1879:
  3206  16E7  1429               	bsf	___lwdiv@quotient,0
  3207  16E8                     l1881:
  3208  16E8  3001               	movlw	1
  3209  16E9                     u1925:
  3210  16E9  1003               	clrc
  3211  16EA  0CA5               	rrf	___lwdiv@divisor+1,f
  3212  16EB  0CA4               	rrf	___lwdiv@divisor,f
  3213  16EC  3EFF               	addlw	-1
  3214  16ED  1D03               	skipz
  3215  16EE  2EE9               	goto	u1925
  3216  16EF                     l1883:
  3217  16EF  3001               	movlw	1
  3218  16F0  02AB               	subwf	___lwdiv@counter,f
  3219  16F1  1D03               	btfss	3,2
  3220  16F2  2EF4               	goto	u1931
  3221  16F3  2EF5               	goto	u1930
  3222  16F4                     u1931:
  3223  16F4  2ED0               	goto	l1875
  3224  16F5                     u1930:
  3225  16F5                     l1885:
  3226  16F5  082A               	movf	___lwdiv@quotient+1,w
  3227  16F6  00A5               	movwf	?___lwdiv+1
  3228  16F7  0829               	movf	___lwdiv@quotient,w
  3229  16F8  00A4               	movwf	?___lwdiv
  3230  16F9                     l567:
  3231  16F9  0008               	return
  3232  16FA                     __end_of___lwdiv:
  3233                           
  3234                           	psect	text6
  3235  0A15                     __ptext6:	
  3236 ;; *************** function ___fltol *****************
  3237 ;; Defined at:
  3238 ;;		line 43 in file "C:\Program Files\Microchip\xc8\v2.36\pic\sources\c90\common\fltol.c"
  3239 ;; Parameters:    Size  Location     Type
  3240 ;;  f1              4   13[BANK1 ] unsigned int 
  3241 ;; Auto vars:     Size  Location     Type
  3242 ;;  exp1            1   70[BANK0 ] unsigned char 
  3243 ;;  sign1           1   69[BANK0 ] unsigned char 
  3244 ;; Return value:  Size  Location     Type
  3245 ;;                  4   13[BANK1 ] long 
  3246 ;; Registers used:
  3247 ;;		wreg, status,2, status,0
  3248 ;; Tracked objects:
  3249 ;;		On entry : 0/0
  3250 ;;		On exit  : 0/0
  3251 ;;		Unchanged: 0/0
  3252 ;; Data sizes:     COMMON   BANK0   BANK1   BANK3   BANK2
  3253 ;;      Params:         0       0       4       0       0
  3254 ;;      Locals:         0       2       0       0       0
  3255 ;;      Temps:          0       0       5       0       0
  3256 ;;      Totals:         0       2       9       0       0
  3257 ;;Total ram usage:       11 bytes
  3258 ;; Hardware stack levels used: 1
  3259 ;; Hardware stack levels required when called: 4
  3260 ;; This function calls:
  3261 ;;		Nothing
  3262 ;; This function is called by:
  3263 ;;		_Lcd_Padrao
  3264 ;; This function uses a non-reentrant model
  3265 ;;
  3266                           
  3267  0A15                     ___fltol:	
  3268                           ;psect for function ___fltol
  3269                           
  3270  0A15                     l2829:	
  3271                           ;incstack = 0
  3272                           ; Regs used in ___fltol: [wreg+status,2+status,0]
  3273                           
  3274  0A15  1003               	clrc
  3275  0A16  1683               	bsf	3,5	;RP0=1, select bank1
  3276  0A17  1303               	bcf	3,6	;RP1=0, select bank1
  3277  0A18  0D2F               	rlf	(___fltol@f1+2)^(0+128),w
  3278  0A19  0D30               	rlf	(___fltol@f1+3)^(0+128),w
  3279  0A1A  00B1               	movwf	??___fltol^(0+128)
  3280  0A1B  0831               	movf	??___fltol^(0+128),w
  3281  0A1C  1283               	bcf	3,5	;RP0=0, select bank0
  3282  0A1D  1303               	bcf	3,6	;RP1=0, select bank0
  3283  0A1E  00E6               	movwf	___fltol@exp1
  3284  0A1F  0866               	movf	___fltol@exp1,w
  3285  0A20  1D03               	btfss	3,2
  3286  0A21  2A23               	goto	u3641
  3287  0A22  2A24               	goto	u3640
  3288  0A23                     u3641:
  3289  0A23  2A2F               	goto	l2835
  3290  0A24                     u3640:
  3291  0A24                     l2831:
  3292  0A24  3000               	movlw	0
  3293  0A25  1683               	bsf	3,5	;RP0=1, select bank1
  3294  0A26  1303               	bcf	3,6	;RP1=0, select bank1
  3295  0A27  00B0               	movwf	(?___fltol+3)^(0+128)
  3296  0A28  3000               	movlw	0
  3297  0A29  00AF               	movwf	(?___fltol+2)^(0+128)
  3298  0A2A  3000               	movlw	0
  3299  0A2B  00AE               	movwf	(?___fltol+1)^(0+128)
  3300  0A2C  3000               	movlw	0
  3301  0A2D  00AD               	movwf	?___fltol^(0+128)
  3302  0A2E  2AA6               	goto	l481
  3303  0A2F                     l2835:
  3304  0A2F  1683               	bsf	3,5	;RP0=1, select bank1
  3305  0A30  1303               	bcf	3,6	;RP1=0, select bank1
  3306  0A31  082D               	movf	___fltol@f1^(0+128),w
  3307  0A32  00B1               	movwf	??___fltol^(0+128)
  3308  0A33  082E               	movf	(___fltol@f1+1)^(0+128),w
  3309  0A34  00B2               	movwf	(??___fltol^(0+128)+1)
  3310  0A35  082F               	movf	(___fltol@f1+2)^(0+128),w
  3311  0A36  00B3               	movwf	(??___fltol^(0+128)+2)
  3312  0A37  0830               	movf	(___fltol@f1+3)^(0+128),w
  3313  0A38  00B4               	movwf	(??___fltol^(0+128)+3)
  3314  0A39  301F               	movlw	31
  3315  0A3A                     u3655:
  3316  0A3A  1003               	clrc
  3317  0A3B  0CB4               	rrf	(??___fltol^(0+128)+3),f
  3318  0A3C  0CB3               	rrf	(??___fltol^(0+128)+2),f
  3319  0A3D  0CB2               	rrf	(??___fltol^(0+128)+1),f
  3320  0A3E  0CB1               	rrf	??___fltol^(0+128),f
  3321  0A3F                     u3650:
  3322  0A3F  3EFF               	addlw	-1
  3323  0A40  1D03               	skipz
  3324  0A41  2A3A               	goto	u3655
  3325  0A42  0831               	movf	??___fltol^(0+128),w
  3326  0A43  00B5               	movwf	(??___fltol+4)^(0+128)
  3327  0A44  0835               	movf	(??___fltol+4)^(0+128),w
  3328  0A45  1283               	bcf	3,5	;RP0=0, select bank0
  3329  0A46  1303               	bcf	3,6	;RP1=0, select bank0
  3330  0A47  00E5               	movwf	___fltol@sign1
  3331  0A48                     l2837:
  3332  0A48  1683               	bsf	3,5	;RP0=1, select bank1
  3333  0A49  1303               	bcf	3,6	;RP1=0, select bank1
  3334  0A4A  17AF               	bsf	(___fltol@f1^(0+128)+2),7
  3335  0A4B                     l2839:
  3336  0A4B  30FF               	movlw	255
  3337  0A4C  05AD               	andwf	___fltol@f1^(0+128),f
  3338  0A4D  30FF               	movlw	255
  3339  0A4E  05AE               	andwf	(___fltol@f1+1)^(0+128),f
  3340  0A4F  30FF               	movlw	255
  3341  0A50  05AF               	andwf	(___fltol@f1+2)^(0+128),f
  3342  0A51  3000               	movlw	0
  3343  0A52  05B0               	andwf	(___fltol@f1+3)^(0+128),f
  3344  0A53                     l2841:
  3345  0A53  3096               	movlw	150
  3346  0A54  1283               	bcf	3,5	;RP0=0, select bank0
  3347  0A55  1303               	bcf	3,6	;RP1=0, select bank0
  3348  0A56  02E6               	subwf	___fltol@exp1,f
  3349  0A57                     l2843:
  3350  0A57  1FE6               	btfss	___fltol@exp1,7
  3351  0A58  2A5A               	goto	u3661
  3352  0A59  2A5B               	goto	u3660
  3353  0A5A                     u3661:
  3354  0A5A  2A79               	goto	l2853
  3355  0A5B                     u3660:
  3356  0A5B                     l2845:
  3357  0A5B  0866               	movf	___fltol@exp1,w
  3358  0A5C  3A80               	xorlw	128
  3359  0A5D  3E97               	addlw	151
  3360  0A5E  1803               	skipnc
  3361  0A5F  2A61               	goto	u3671
  3362  0A60  2A62               	goto	u3670
  3363  0A61                     u3671:
  3364  0A61  2A63               	goto	l2851
  3365  0A62                     u3670:
  3366  0A62  2A24               	goto	l2831
  3367  0A63                     l2851:
  3368  0A63  3001               	movlw	1
  3369  0A64                     u3685:
  3370  0A64  1003               	clrc
  3371  0A65  1683               	bsf	3,5	;RP0=1, select bank1
  3372  0A66  1303               	bcf	3,6	;RP1=0, select bank1
  3373  0A67  0CB0               	rrf	(___fltol@f1+3)^(0+128),f
  3374  0A68  0CAF               	rrf	(___fltol@f1+2)^(0+128),f
  3375  0A69  0CAE               	rrf	(___fltol@f1+1)^(0+128),f
  3376  0A6A  0CAD               	rrf	___fltol@f1^(0+128),f
  3377  0A6B  3EFF               	addlw	-1
  3378  0A6C  1D03               	skipz
  3379  0A6D  2A64               	goto	u3685
  3380  0A6E  3001               	movlw	1
  3381  0A6F  00B1               	movwf	??___fltol^(0+128)
  3382  0A70  0831               	movf	??___fltol^(0+128),w
  3383  0A71  1283               	bcf	3,5	;RP0=0, select bank0
  3384  0A72  1303               	bcf	3,6	;RP1=0, select bank0
  3385  0A73  07E6               	addwf	___fltol@exp1,f
  3386  0A74  1D03               	btfss	3,2
  3387  0A75  2A77               	goto	u3691
  3388  0A76  2A78               	goto	u3690
  3389  0A77                     u3691:
  3390  0A77  2A63               	goto	l2851
  3391  0A78                     u3690:
  3392  0A78  2A94               	goto	l2861
  3393  0A79                     l2853:
  3394  0A79  3020               	movlw	32
  3395  0A7A  0266               	subwf	___fltol@exp1,w
  3396  0A7B  1C03               	skipc
  3397  0A7C  2A7E               	goto	u3701
  3398  0A7D  2A7F               	goto	u3700
  3399  0A7E                     u3701:
  3400  0A7E  2A8F               	goto	l488
  3401  0A7F                     u3700:
  3402  0A7F  2A24               	goto	l2831
  3403  0A80                     l2859:
  3404  0A80  3001               	movlw	1
  3405  0A81  1683               	bsf	3,5	;RP0=1, select bank1
  3406  0A82  1303               	bcf	3,6	;RP1=0, select bank1
  3407  0A83  00B1               	movwf	??___fltol^(0+128)
  3408  0A84                     u3715:
  3409  0A84  1003               	clrc
  3410  0A85  0DAD               	rlf	___fltol@f1^(0+128),f
  3411  0A86  0DAE               	rlf	(___fltol@f1+1)^(0+128),f
  3412  0A87  0DAF               	rlf	(___fltol@f1+2)^(0+128),f
  3413  0A88  0DB0               	rlf	(___fltol@f1+3)^(0+128),f
  3414  0A89  0BB1               	decfsz	??___fltol^(0+128),f
  3415  0A8A  2A84               	goto	u3715
  3416  0A8B  3001               	movlw	1
  3417  0A8C  1283               	bcf	3,5	;RP0=0, select bank0
  3418  0A8D  1303               	bcf	3,6	;RP1=0, select bank0
  3419  0A8E  02E6               	subwf	___fltol@exp1,f
  3420  0A8F                     l488:
  3421  0A8F  0866               	movf	___fltol@exp1,w
  3422  0A90  1D03               	btfss	3,2
  3423  0A91  2A93               	goto	u3721
  3424  0A92  2A94               	goto	u3720
  3425  0A93                     u3721:
  3426  0A93  2A80               	goto	l2859
  3427  0A94                     u3720:
  3428  0A94                     l2861:
  3429  0A94  0865               	movf	___fltol@sign1,w
  3430  0A95  1903               	btfsc	3,2
  3431  0A96  2A98               	goto	u3731
  3432  0A97  2A99               	goto	u3730
  3433  0A98                     u3731:
  3434  0A98  2AA6               	goto	l491
  3435  0A99                     u3730:
  3436  0A99                     l2863:
  3437  0A99  1683               	bsf	3,5	;RP0=1, select bank1
  3438  0A9A  1303               	bcf	3,6	;RP1=0, select bank1
  3439  0A9B  09AD               	comf	___fltol@f1^(0+128),f
  3440  0A9C  09AE               	comf	(___fltol@f1+1)^(0+128),f
  3441  0A9D  09AF               	comf	(___fltol@f1+2)^(0+128),f
  3442  0A9E  09B0               	comf	(___fltol@f1+3)^(0+128),f
  3443  0A9F  0AAD               	incf	___fltol@f1^(0+128),f
  3444  0AA0  1903               	skipnz
  3445  0AA1  0AAE               	incf	(___fltol@f1+1)^(0+128),f
  3446  0AA2  1903               	skipnz
  3447  0AA3  0AAF               	incf	(___fltol@f1+2)^(0+128),f
  3448  0AA4  1903               	skipnz
  3449  0AA5  0AB0               	incf	(___fltol@f1+3)^(0+128),f
  3450  0AA6                     l491:
  3451  0AA6                     l481:
  3452  0AA6  0008               	return
  3453  0AA7                     __end_of___fltol:
  3454                           
  3455                           	psect	text7
  3456  002D                     __ptext7:	
  3457 ;; *************** function ___flmul *****************
  3458 ;; Defined at:
  3459 ;;		line 8 in file "C:\Program Files\Microchip\xc8\v2.36\pic\sources\c90\common\sprcmul.c"
  3460 ;; Parameters:    Size  Location     Type
  3461 ;;  b               4   30[BANK0 ] long 
  3462 ;;  a               4   34[BANK0 ] long 
  3463 ;; Auto vars:     Size  Location     Type
  3464 ;;  prod            4   50[BANK0 ] struct .
  3465 ;;  grs             4   44[BANK0 ] unsigned long 
  3466 ;;  temp            2   54[BANK0 ] struct .
  3467 ;;  bexp            1   49[BANK0 ] unsigned char 
  3468 ;;  aexp            1   48[BANK0 ] unsigned char 
  3469 ;;  sign            1   43[BANK0 ] unsigned char 
  3470 ;; Return value:  Size  Location     Type
  3471 ;;                  4   30[BANK0 ] unsigned char 
  3472 ;; Registers used:
  3473 ;;		wreg, status,2, status,0, btemp+1, pclath, cstack
  3474 ;; Tracked objects:
  3475 ;;		On entry : 0/0
  3476 ;;		On exit  : 0/0
  3477 ;;		Unchanged: 0/0
  3478 ;; Data sizes:     COMMON   BANK0   BANK1   BANK3   BANK2
  3479 ;;      Params:         0       8       0       0       0
  3480 ;;      Locals:         0      13       0       0       0
  3481 ;;      Temps:          0       5       0       0       0
  3482 ;;      Totals:         0      26       0       0       0
  3483 ;;Total ram usage:       26 bytes
  3484 ;; Hardware stack levels used: 1
  3485 ;; Hardware stack levels required when called: 5
  3486 ;; This function calls:
  3487 ;;		__Umul8_16
  3488 ;; This function is called by:
  3489 ;;		_Lcd_Padrao
  3490 ;; This function uses a non-reentrant model
  3491 ;;
  3492                           
  3493  002D                     ___flmul:	
  3494                           ;psect for function ___flmul
  3495                           
  3496  002D                     l2329:	
  3497                           ;incstack = 0
  3498                           ; Regs used in ___flmul: [wreg+status,2+status,0+btemp+1+pclath+cstack]
  3499                           
  3500  002D  1283               	bcf	3,5	;RP0=0, select bank0
  3501  002E  1303               	bcf	3,6	;RP1=0, select bank0
  3502  002F  0841               	movf	___flmul@b+3,w
  3503  0030  3980               	andlw	128
  3504  0031  00C6               	movwf	??___flmul
  3505  0032  0846               	movf	??___flmul,w
  3506  0033  00CB               	movwf	___flmul@sign
  3507  0034                     l2331:
  3508  0034  0841               	movf	___flmul@b+3,w
  3509  0035  00C6               	movwf	??___flmul
  3510  0036  0746               	addwf	??___flmul,w
  3511  0037  00C7               	movwf	??___flmul+1
  3512  0038  0847               	movf	??___flmul+1,w
  3513  0039  00D1               	movwf	___flmul@bexp
  3514  003A                     l2333:
  3515  003A  1FC0               	btfss	___flmul@b+2,7
  3516  003B  283D               	goto	u2851
  3517  003C  283E               	goto	u2850
  3518  003D                     u2851:
  3519  003D  283F               	goto	l2337
  3520  003E                     u2850:
  3521  003E                     l2335:
  3522  003E  1451               	bsf	___flmul@bexp,0
  3523  003F                     l2337:
  3524  003F  0851               	movf	___flmul@bexp,w
  3525  0040  1903               	btfsc	3,2
  3526  0041  2843               	goto	u2861
  3527  0042  2844               	goto	u2860
  3528  0043                     u2861:
  3529  0043  2853               	goto	l2345
  3530  0044                     u2860:
  3531  0044                     l2339:
  3532  0044  0A51               	incf	___flmul@bexp,w
  3533  0045  1D03               	btfss	3,2
  3534  0046  2848               	goto	u2871
  3535  0047  2849               	goto	u2870
  3536  0048                     u2871:
  3537  0048  2851               	goto	l2343
  3538  0049                     u2870:
  3539  0049                     l2341:
  3540  0049  3000               	movlw	0
  3541  004A  00C1               	movwf	___flmul@b+3
  3542  004B  3000               	movlw	0
  3543  004C  00C0               	movwf	___flmul@b+2
  3544  004D  3000               	movlw	0
  3545  004E  00BF               	movwf	___flmul@b+1
  3546  004F  3000               	movlw	0
  3547  0050  00BE               	movwf	___flmul@b
  3548  0051                     l2343:
  3549  0051  17C0               	bsf	___flmul@b+2,7
  3550  0052  285B               	goto	l2347
  3551  0053                     l2345:
  3552  0053  3000               	movlw	0
  3553  0054  00C1               	movwf	___flmul@b+3
  3554  0055  3000               	movlw	0
  3555  0056  00C0               	movwf	___flmul@b+2
  3556  0057  3000               	movlw	0
  3557  0058  00BF               	movwf	___flmul@b+1
  3558  0059  3000               	movlw	0
  3559  005A  00BE               	movwf	___flmul@b
  3560  005B                     l2347:
  3561  005B  0845               	movf	___flmul@a+3,w
  3562  005C  3980               	andlw	128
  3563  005D  00C6               	movwf	??___flmul
  3564  005E  0846               	movf	??___flmul,w
  3565  005F  06CB               	xorwf	___flmul@sign,f
  3566  0060                     l2349:
  3567  0060  0845               	movf	___flmul@a+3,w
  3568  0061  00C6               	movwf	??___flmul
  3569  0062  0746               	addwf	??___flmul,w
  3570  0063  00C7               	movwf	??___flmul+1
  3571  0064  0847               	movf	??___flmul+1,w
  3572  0065  00D0               	movwf	___flmul@aexp
  3573  0066                     l2351:
  3574  0066  1FC4               	btfss	___flmul@a+2,7
  3575  0067  2869               	goto	u2881
  3576  0068  286A               	goto	u2880
  3577  0069                     u2881:
  3578  0069  286B               	goto	l2355
  3579  006A                     u2880:
  3580  006A                     l2353:
  3581  006A  1450               	bsf	___flmul@aexp,0
  3582  006B                     l2355:
  3583  006B  0850               	movf	___flmul@aexp,w
  3584  006C  1903               	btfsc	3,2
  3585  006D  286F               	goto	u2891
  3586  006E  2870               	goto	u2890
  3587  006F                     u2891:
  3588  006F  287F               	goto	l2363
  3589  0070                     u2890:
  3590  0070                     l2357:
  3591  0070  0A50               	incf	___flmul@aexp,w
  3592  0071  1D03               	btfss	3,2
  3593  0072  2874               	goto	u2901
  3594  0073  2875               	goto	u2900
  3595  0074                     u2901:
  3596  0074  287D               	goto	l2361
  3597  0075                     u2900:
  3598  0075                     l2359:
  3599  0075  3000               	movlw	0
  3600  0076  00C5               	movwf	___flmul@a+3
  3601  0077  3000               	movlw	0
  3602  0078  00C4               	movwf	___flmul@a+2
  3603  0079  3000               	movlw	0
  3604  007A  00C3               	movwf	___flmul@a+1
  3605  007B  3000               	movlw	0
  3606  007C  00C2               	movwf	___flmul@a
  3607  007D                     l2361:
  3608  007D  17C4               	bsf	___flmul@a+2,7
  3609  007E  2887               	goto	l2365
  3610  007F                     l2363:
  3611  007F  3000               	movlw	0
  3612  0080  00C5               	movwf	___flmul@a+3
  3613  0081  3000               	movlw	0
  3614  0082  00C4               	movwf	___flmul@a+2
  3615  0083  3000               	movlw	0
  3616  0084  00C3               	movwf	___flmul@a+1
  3617  0085  3000               	movlw	0
  3618  0086  00C2               	movwf	___flmul@a
  3619  0087                     l2365:
  3620  0087  0850               	movf	___flmul@aexp,w
  3621  0088  1903               	btfsc	3,2
  3622  0089  288B               	goto	u2911
  3623  008A  288C               	goto	u2910
  3624  008B                     u2911:
  3625  008B  2891               	goto	l2369
  3626  008C                     u2910:
  3627  008C                     l2367:
  3628  008C  0851               	movf	___flmul@bexp,w
  3629  008D  1D03               	btfss	3,2
  3630  008E  2890               	goto	u2921
  3631  008F  2891               	goto	u2920
  3632  0090                     u2921:
  3633  0090  289A               	goto	l2373
  3634  0091                     u2920:
  3635  0091                     l2369:
  3636  0091  3000               	movlw	0
  3637  0092  00C1               	movwf	?___flmul+3
  3638  0093  3000               	movlw	0
  3639  0094  00C0               	movwf	?___flmul+2
  3640  0095  3000               	movlw	0
  3641  0096  00BF               	movwf	?___flmul+1
  3642  0097  3000               	movlw	0
  3643  0098  00BE               	movwf	?___flmul
  3644  0099  2B8D               	goto	l684
  3645  009A                     l2373:
  3646  009A  083E               	movf	___flmul@b,w
  3647  009B  00C6               	movwf	??___flmul
  3648  009C  0846               	movf	??___flmul,w
  3649  009D  00A4               	movwf	__Umul8_16@multiplicand
  3650  009E  0844               	movf	___flmul@a+2,w
  3651  009F  120A  118A  27D4  120A  118A  	fcall	__Umul8_16
  3652  00A4  1283               	bcf	3,5	;RP0=0, select bank0
  3653  00A5  1303               	bcf	3,6	;RP1=0, select bank0
  3654  00A6  0825               	movf	?__Umul8_16+1,w
  3655  00A7  00D7               	movwf	___flmul@temp+1
  3656  00A8  0824               	movf	?__Umul8_16,w
  3657  00A9  00D6               	movwf	___flmul@temp
  3658  00AA                     l2375:
  3659  00AA  0856               	movf	___flmul@temp,w
  3660  00AB  00C6               	movwf	??___flmul
  3661  00AC  01C7               	clrf	??___flmul+1
  3662  00AD  01C8               	clrf	??___flmul+2
  3663  00AE  01C9               	clrf	??___flmul+3
  3664  00AF  0849               	movf	??___flmul+3,w
  3665  00B0  00CF               	movwf	___flmul@grs+3
  3666  00B1  0848               	movf	??___flmul+2,w
  3667  00B2  00CE               	movwf	___flmul@grs+2
  3668  00B3  0847               	movf	??___flmul+1,w
  3669  00B4  00CD               	movwf	___flmul@grs+1
  3670  00B5  0846               	movf	??___flmul,w
  3671  00B6  00CC               	movwf	___flmul@grs
  3672  00B7                     l2377:
  3673  00B7  0857               	movf	___flmul@temp+1,w
  3674  00B8  00C6               	movwf	??___flmul
  3675  00B9  01C7               	clrf	??___flmul+1
  3676  00BA  01C8               	clrf	??___flmul+2
  3677  00BB  01C9               	clrf	??___flmul+3
  3678  00BC  0849               	movf	??___flmul+3,w
  3679  00BD  00D5               	movwf	___flmul@prod+3
  3680  00BE  0848               	movf	??___flmul+2,w
  3681  00BF  00D4               	movwf	___flmul@prod+2
  3682  00C0  0847               	movf	??___flmul+1,w
  3683  00C1  00D3               	movwf	___flmul@prod+1
  3684  00C2  0846               	movf	??___flmul,w
  3685  00C3  00D2               	movwf	___flmul@prod
  3686  00C4  083F               	movf	___flmul@b+1,w
  3687  00C5  00C6               	movwf	??___flmul
  3688  00C6  0846               	movf	??___flmul,w
  3689  00C7  00A4               	movwf	__Umul8_16@multiplicand
  3690  00C8  0843               	movf	___flmul@a+1,w
  3691  00C9  120A  118A  27D4  120A  118A  	fcall	__Umul8_16
  3692  00CE  1283               	bcf	3,5	;RP0=0, select bank0
  3693  00CF  1303               	bcf	3,6	;RP1=0, select bank0
  3694  00D0  0825               	movf	?__Umul8_16+1,w
  3695  00D1  00D7               	movwf	___flmul@temp+1
  3696  00D2  0824               	movf	?__Umul8_16,w
  3697  00D3  00D6               	movwf	___flmul@temp
  3698  00D4                     l2379:
  3699  00D4  0856               	movf	___flmul@temp,w
  3700  00D5  00C6               	movwf	??___flmul
  3701  00D6  01C7               	clrf	??___flmul+1
  3702  00D7  01C8               	clrf	??___flmul+2
  3703  00D8  01C9               	clrf	??___flmul+3
  3704  00D9  0846               	movf	??___flmul,w
  3705  00DA  07CC               	addwf	___flmul@grs,f
  3706  00DB  0847               	movf	??___flmul+1,w
  3707  00DC  1103               	clrz
  3708  00DD  1803               	skipnc
  3709  00DE  3E01               	addlw	1
  3710  00DF  1903               	skipnz
  3711  00E0  28E2               	goto	u2931
  3712  00E1  07CD               	addwf	___flmul@grs+1,f
  3713  00E2                     u2931:
  3714  00E2  0848               	movf	??___flmul+2,w
  3715  00E3  1103               	clrz
  3716  00E4  1803               	skipnc
  3717  00E5  3E01               	addlw	1
  3718  00E6  1903               	skipnz
  3719  00E7  28E9               	goto	u2932
  3720  00E8  07CE               	addwf	___flmul@grs+2,f
  3721  00E9                     u2932:
  3722  00E9  0849               	movf	??___flmul+3,w
  3723  00EA  1103               	clrz
  3724  00EB  1803               	skipnc
  3725  00EC  3E01               	addlw	1
  3726  00ED  1903               	skipnz
  3727  00EE  28F0               	goto	u2933
  3728  00EF  07CF               	addwf	___flmul@grs+3,f
  3729  00F0                     u2933:
  3730  00F0                     l2381:
  3731  00F0  0857               	movf	___flmul@temp+1,w
  3732  00F1  00C6               	movwf	??___flmul
  3733  00F2  01C7               	clrf	??___flmul+1
  3734  00F3  01C8               	clrf	??___flmul+2
  3735  00F4  01C9               	clrf	??___flmul+3
  3736  00F5  0846               	movf	??___flmul,w
  3737  00F6  07D2               	addwf	___flmul@prod,f
  3738  00F7  0847               	movf	??___flmul+1,w
  3739  00F8  1103               	clrz
  3740  00F9  1803               	skipnc
  3741  00FA  3E01               	addlw	1
  3742  00FB  1903               	skipnz
  3743  00FC  28FE               	goto	u2941
  3744  00FD  07D3               	addwf	___flmul@prod+1,f
  3745  00FE                     u2941:
  3746  00FE  0848               	movf	??___flmul+2,w
  3747  00FF  1103               	clrz
  3748  0100  1803               	skipnc
  3749  0101  3E01               	addlw	1
  3750  0102  1903               	skipnz
  3751  0103  2905               	goto	u2942
  3752  0104  07D4               	addwf	___flmul@prod+2,f
  3753  0105                     u2942:
  3754  0105  0849               	movf	??___flmul+3,w
  3755  0106  1103               	clrz
  3756  0107  1803               	skipnc
  3757  0108  3E01               	addlw	1
  3758  0109  1903               	skipnz
  3759  010A  290C               	goto	u2943
  3760  010B  07D5               	addwf	___flmul@prod+3,f
  3761  010C                     u2943:
  3762  010C  0840               	movf	___flmul@b+2,w
  3763  010D  00C6               	movwf	??___flmul
  3764  010E  0846               	movf	??___flmul,w
  3765  010F  00A4               	movwf	__Umul8_16@multiplicand
  3766  0110  0842               	movf	___flmul@a,w
  3767  0111  120A  118A  27D4  120A  118A  	fcall	__Umul8_16
  3768  0116  1283               	bcf	3,5	;RP0=0, select bank0
  3769  0117  1303               	bcf	3,6	;RP1=0, select bank0
  3770  0118  0825               	movf	?__Umul8_16+1,w
  3771  0119  00D7               	movwf	___flmul@temp+1
  3772  011A  0824               	movf	?__Umul8_16,w
  3773  011B  00D6               	movwf	___flmul@temp
  3774  011C                     l2383:
  3775  011C  0856               	movf	___flmul@temp,w
  3776  011D  00C6               	movwf	??___flmul
  3777  011E  01C7               	clrf	??___flmul+1
  3778  011F  01C8               	clrf	??___flmul+2
  3779  0120  01C9               	clrf	??___flmul+3
  3780  0121  0846               	movf	??___flmul,w
  3781  0122  07CC               	addwf	___flmul@grs,f
  3782  0123  0847               	movf	??___flmul+1,w
  3783  0124  1103               	clrz
  3784  0125  1803               	skipnc
  3785  0126  3E01               	addlw	1
  3786  0127  1903               	skipnz
  3787  0128  292A               	goto	u2951
  3788  0129  07CD               	addwf	___flmul@grs+1,f
  3789  012A                     u2951:
  3790  012A  0848               	movf	??___flmul+2,w
  3791  012B  1103               	clrz
  3792  012C  1803               	skipnc
  3793  012D  3E01               	addlw	1
  3794  012E  1903               	skipnz
  3795  012F  2931               	goto	u2952
  3796  0130  07CE               	addwf	___flmul@grs+2,f
  3797  0131                     u2952:
  3798  0131  0849               	movf	??___flmul+3,w
  3799  0132  1103               	clrz
  3800  0133  1803               	skipnc
  3801  0134  3E01               	addlw	1
  3802  0135  1903               	skipnz
  3803  0136  2938               	goto	u2953
  3804  0137  07CF               	addwf	___flmul@grs+3,f
  3805  0138                     u2953:
  3806  0138                     l2385:
  3807  0138  0857               	movf	___flmul@temp+1,w
  3808  0139  00C6               	movwf	??___flmul
  3809  013A  01C7               	clrf	??___flmul+1
  3810  013B  01C8               	clrf	??___flmul+2
  3811  013C  01C9               	clrf	??___flmul+3
  3812  013D  0846               	movf	??___flmul,w
  3813  013E  07D2               	addwf	___flmul@prod,f
  3814  013F  0847               	movf	??___flmul+1,w
  3815  0140  1103               	clrz
  3816  0141  1803               	skipnc
  3817  0142  3E01               	addlw	1
  3818  0143  1903               	skipnz
  3819  0144  2946               	goto	u2961
  3820  0145  07D3               	addwf	___flmul@prod+1,f
  3821  0146                     u2961:
  3822  0146  0848               	movf	??___flmul+2,w
  3823  0147  1103               	clrz
  3824  0148  1803               	skipnc
  3825  0149  3E01               	addlw	1
  3826  014A  1903               	skipnz
  3827  014B  294D               	goto	u2962
  3828  014C  07D4               	addwf	___flmul@prod+2,f
  3829  014D                     u2962:
  3830  014D  0849               	movf	??___flmul+3,w
  3831  014E  1103               	clrz
  3832  014F  1803               	skipnc
  3833  0150  3E01               	addlw	1
  3834  0151  1903               	skipnz
  3835  0152  2954               	goto	u2963
  3836  0153  07D5               	addwf	___flmul@prod+3,f
  3837  0154                     u2963:
  3838  0154                     l2387:
  3839  0154  3008               	movlw	8
  3840  0155  00C6               	movwf	??___flmul
  3841  0156                     u2975:
  3842  0156  1003               	clrc
  3843  0157  0DCC               	rlf	___flmul@grs,f
  3844  0158  0DCD               	rlf	___flmul@grs+1,f
  3845  0159  0DCE               	rlf	___flmul@grs+2,f
  3846  015A  0DCF               	rlf	___flmul@grs+3,f
  3847  015B  0BC6               	decfsz	??___flmul,f
  3848  015C  2956               	goto	u2975
  3849  015D                     l2389:
  3850  015D  083F               	movf	___flmul@b+1,w
  3851  015E  00C6               	movwf	??___flmul
  3852  015F  0846               	movf	??___flmul,w
  3853  0160  00A4               	movwf	__Umul8_16@multiplicand
  3854  0161  0842               	movf	___flmul@a,w
  3855  0162  120A  118A  27D4  120A  118A  	fcall	__Umul8_16
  3856  0167  1283               	bcf	3,5	;RP0=0, select bank0
  3857  0168  1303               	bcf	3,6	;RP1=0, select bank0
  3858  0169  0825               	movf	?__Umul8_16+1,w
  3859  016A  00D7               	movwf	___flmul@temp+1
  3860  016B  0824               	movf	?__Umul8_16,w
  3861  016C  00D6               	movwf	___flmul@temp
  3862  016D                     l2391:
  3863  016D  0856               	movf	___flmul@temp,w
  3864  016E  00C6               	movwf	??___flmul
  3865  016F  0857               	movf	___flmul@temp+1,w
  3866  0170  00C7               	movwf	??___flmul+1
  3867  0171  01C8               	clrf	??___flmul+2
  3868  0172  01C9               	clrf	??___flmul+3
  3869  0173  0846               	movf	??___flmul,w
  3870  0174  07CC               	addwf	___flmul@grs,f
  3871  0175  0847               	movf	??___flmul+1,w
  3872  0176  1103               	clrz
  3873  0177  1803               	skipnc
  3874  0178  3E01               	addlw	1
  3875  0179  1903               	skipnz
  3876  017A  297C               	goto	u2981
  3877  017B  07CD               	addwf	___flmul@grs+1,f
  3878  017C                     u2981:
  3879  017C  0848               	movf	??___flmul+2,w
  3880  017D  1103               	clrz
  3881  017E  1803               	skipnc
  3882  017F  3E01               	addlw	1
  3883  0180  1903               	skipnz
  3884  0181  2983               	goto	u2982
  3885  0182  07CE               	addwf	___flmul@grs+2,f
  3886  0183                     u2982:
  3887  0183  0849               	movf	??___flmul+3,w
  3888  0184  1103               	clrz
  3889  0185  1803               	skipnc
  3890  0186  3E01               	addlw	1
  3891  0187  1903               	skipnz
  3892  0188  298A               	goto	u2983
  3893  0189  07CF               	addwf	___flmul@grs+3,f
  3894  018A                     u2983:
  3895  018A                     l2393:
  3896  018A  083E               	movf	___flmul@b,w
  3897  018B  00C6               	movwf	??___flmul
  3898  018C  0846               	movf	??___flmul,w
  3899  018D  00A4               	movwf	__Umul8_16@multiplicand
  3900  018E  0843               	movf	___flmul@a+1,w
  3901  018F  120A  118A  27D4  120A  118A  	fcall	__Umul8_16
  3902  0194  1283               	bcf	3,5	;RP0=0, select bank0
  3903  0195  1303               	bcf	3,6	;RP1=0, select bank0
  3904  0196  0825               	movf	?__Umul8_16+1,w
  3905  0197  00D7               	movwf	___flmul@temp+1
  3906  0198  0824               	movf	?__Umul8_16,w
  3907  0199  00D6               	movwf	___flmul@temp
  3908  019A                     l2395:
  3909  019A  0856               	movf	___flmul@temp,w
  3910  019B  00C6               	movwf	??___flmul
  3911  019C  0857               	movf	___flmul@temp+1,w
  3912  019D  00C7               	movwf	??___flmul+1
  3913  019E  01C8               	clrf	??___flmul+2
  3914  019F  01C9               	clrf	??___flmul+3
  3915  01A0  0846               	movf	??___flmul,w
  3916  01A1  07CC               	addwf	___flmul@grs,f
  3917  01A2  0847               	movf	??___flmul+1,w
  3918  01A3  1103               	clrz
  3919  01A4  1803               	skipnc
  3920  01A5  3E01               	addlw	1
  3921  01A6  1903               	skipnz
  3922  01A7  29A9               	goto	u2991
  3923  01A8  07CD               	addwf	___flmul@grs+1,f
  3924  01A9                     u2991:
  3925  01A9  0848               	movf	??___flmul+2,w
  3926  01AA  1103               	clrz
  3927  01AB  1803               	skipnc
  3928  01AC  3E01               	addlw	1
  3929  01AD  1903               	skipnz
  3930  01AE  29B0               	goto	u2992
  3931  01AF  07CE               	addwf	___flmul@grs+2,f
  3932  01B0                     u2992:
  3933  01B0  0849               	movf	??___flmul+3,w
  3934  01B1  1103               	clrz
  3935  01B2  1803               	skipnc
  3936  01B3  3E01               	addlw	1
  3937  01B4  1903               	skipnz
  3938  01B5  29B7               	goto	u2993
  3939  01B6  07CF               	addwf	___flmul@grs+3,f
  3940  01B7                     u2993:
  3941  01B7                     l2397:
  3942  01B7  3008               	movlw	8
  3943  01B8  00C6               	movwf	??___flmul
  3944  01B9                     u3005:
  3945  01B9  1003               	clrc
  3946  01BA  0DCC               	rlf	___flmul@grs,f
  3947  01BB  0DCD               	rlf	___flmul@grs+1,f
  3948  01BC  0DCE               	rlf	___flmul@grs+2,f
  3949  01BD  0DCF               	rlf	___flmul@grs+3,f
  3950  01BE  0BC6               	decfsz	??___flmul,f
  3951  01BF  29B9               	goto	u3005
  3952  01C0  083E               	movf	___flmul@b,w
  3953  01C1  00C6               	movwf	??___flmul
  3954  01C2  0846               	movf	??___flmul,w
  3955  01C3  00A4               	movwf	__Umul8_16@multiplicand
  3956  01C4  0842               	movf	___flmul@a,w
  3957  01C5  120A  118A  27D4  120A  118A  	fcall	__Umul8_16
  3958  01CA  1283               	bcf	3,5	;RP0=0, select bank0
  3959  01CB  1303               	bcf	3,6	;RP1=0, select bank0
  3960  01CC  0825               	movf	?__Umul8_16+1,w
  3961  01CD  00D7               	movwf	___flmul@temp+1
  3962  01CE  0824               	movf	?__Umul8_16,w
  3963  01CF  00D6               	movwf	___flmul@temp
  3964  01D0                     l2399:
  3965  01D0  0856               	movf	___flmul@temp,w
  3966  01D1  00C6               	movwf	??___flmul
  3967  01D2  0857               	movf	___flmul@temp+1,w
  3968  01D3  00C7               	movwf	??___flmul+1
  3969  01D4  01C8               	clrf	??___flmul+2
  3970  01D5  01C9               	clrf	??___flmul+3
  3971  01D6  0846               	movf	??___flmul,w
  3972  01D7  07CC               	addwf	___flmul@grs,f
  3973  01D8  0847               	movf	??___flmul+1,w
  3974  01D9  1103               	clrz
  3975  01DA  1803               	skipnc
  3976  01DB  3E01               	addlw	1
  3977  01DC  1903               	skipnz
  3978  01DD  29DF               	goto	u3011
  3979  01DE  07CD               	addwf	___flmul@grs+1,f
  3980  01DF                     u3011:
  3981  01DF  0848               	movf	??___flmul+2,w
  3982  01E0  1103               	clrz
  3983  01E1  1803               	skipnc
  3984  01E2  3E01               	addlw	1
  3985  01E3  1903               	skipnz
  3986  01E4  29E6               	goto	u3012
  3987  01E5  07CE               	addwf	___flmul@grs+2,f
  3988  01E6                     u3012:
  3989  01E6  0849               	movf	??___flmul+3,w
  3990  01E7  1103               	clrz
  3991  01E8  1803               	skipnc
  3992  01E9  3E01               	addlw	1
  3993  01EA  1903               	skipnz
  3994  01EB  29ED               	goto	u3013
  3995  01EC  07CF               	addwf	___flmul@grs+3,f
  3996  01ED                     u3013:
  3997  01ED                     l2401:
  3998  01ED  083F               	movf	___flmul@b+1,w
  3999  01EE  00C6               	movwf	??___flmul
  4000  01EF  0846               	movf	??___flmul,w
  4001  01F0  00A4               	movwf	__Umul8_16@multiplicand
  4002  01F1  0844               	movf	___flmul@a+2,w
  4003  01F2  120A  118A  27D4  120A  118A  	fcall	__Umul8_16
  4004  01F7  1283               	bcf	3,5	;RP0=0, select bank0
  4005  01F8  1303               	bcf	3,6	;RP1=0, select bank0
  4006  01F9  0825               	movf	?__Umul8_16+1,w
  4007  01FA  00D7               	movwf	___flmul@temp+1
  4008  01FB  0824               	movf	?__Umul8_16,w
  4009  01FC  00D6               	movwf	___flmul@temp
  4010  01FD  0856               	movf	___flmul@temp,w
  4011  01FE  00C6               	movwf	??___flmul
  4012  01FF  0857               	movf	___flmul@temp+1,w
  4013  0200  00C7               	movwf	??___flmul+1
  4014  0201  01C8               	clrf	??___flmul+2
  4015  0202  01C9               	clrf	??___flmul+3
  4016  0203  0846               	movf	??___flmul,w
  4017  0204  07D2               	addwf	___flmul@prod,f
  4018  0205  0847               	movf	??___flmul+1,w
  4019  0206  1103               	clrz
  4020  0207  1803               	skipnc
  4021  0208  3E01               	addlw	1
  4022  0209  1903               	skipnz
  4023  020A  2A0C               	goto	u3021
  4024  020B  07D3               	addwf	___flmul@prod+1,f
  4025  020C                     u3021:
  4026  020C  0848               	movf	??___flmul+2,w
  4027  020D  1103               	clrz
  4028  020E  1803               	skipnc
  4029  020F  3E01               	addlw	1
  4030  0210  1903               	skipnz
  4031  0211  2A13               	goto	u3022
  4032  0212  07D4               	addwf	___flmul@prod+2,f
  4033  0213                     u3022:
  4034  0213  0849               	movf	??___flmul+3,w
  4035  0214  1103               	clrz
  4036  0215  1803               	skipnc
  4037  0216  3E01               	addlw	1
  4038  0217  1903               	skipnz
  4039  0218  2A1A               	goto	u3023
  4040  0219  07D5               	addwf	___flmul@prod+3,f
  4041  021A                     u3023:
  4042  021A                     l2403:
  4043  021A  0840               	movf	___flmul@b+2,w
  4044  021B  00C6               	movwf	??___flmul
  4045  021C  0846               	movf	??___flmul,w
  4046  021D  00A4               	movwf	__Umul8_16@multiplicand
  4047  021E  0843               	movf	___flmul@a+1,w
  4048  021F  120A  118A  27D4  120A  118A  	fcall	__Umul8_16
  4049  0224  1283               	bcf	3,5	;RP0=0, select bank0
  4050  0225  1303               	bcf	3,6	;RP1=0, select bank0
  4051  0226  0825               	movf	?__Umul8_16+1,w
  4052  0227  00D7               	movwf	___flmul@temp+1
  4053  0228  0824               	movf	?__Umul8_16,w
  4054  0229  00D6               	movwf	___flmul@temp
  4055  022A                     l2405:
  4056  022A  0856               	movf	___flmul@temp,w
  4057  022B  00C6               	movwf	??___flmul
  4058  022C  0857               	movf	___flmul@temp+1,w
  4059  022D  00C7               	movwf	??___flmul+1
  4060  022E  01C8               	clrf	??___flmul+2
  4061  022F  01C9               	clrf	??___flmul+3
  4062  0230  0846               	movf	??___flmul,w
  4063  0231  07D2               	addwf	___flmul@prod,f
  4064  0232  0847               	movf	??___flmul+1,w
  4065  0233  1103               	clrz
  4066  0234  1803               	skipnc
  4067  0235  3E01               	addlw	1
  4068  0236  1903               	skipnz
  4069  0237  2A39               	goto	u3031
  4070  0238  07D3               	addwf	___flmul@prod+1,f
  4071  0239                     u3031:
  4072  0239  0848               	movf	??___flmul+2,w
  4073  023A  1103               	clrz
  4074  023B  1803               	skipnc
  4075  023C  3E01               	addlw	1
  4076  023D  1903               	skipnz
  4077  023E  2A40               	goto	u3032
  4078  023F  07D4               	addwf	___flmul@prod+2,f
  4079  0240                     u3032:
  4080  0240  0849               	movf	??___flmul+3,w
  4081  0241  1103               	clrz
  4082  0242  1803               	skipnc
  4083  0243  3E01               	addlw	1
  4084  0244  1903               	skipnz
  4085  0245  2A47               	goto	u3033
  4086  0246  07D5               	addwf	___flmul@prod+3,f
  4087  0247                     u3033:
  4088  0247  0840               	movf	___flmul@b+2,w
  4089  0248  00C6               	movwf	??___flmul
  4090  0249  0846               	movf	??___flmul,w
  4091  024A  00A4               	movwf	__Umul8_16@multiplicand
  4092  024B  0844               	movf	___flmul@a+2,w
  4093  024C  120A  118A  27D4  120A  118A  	fcall	__Umul8_16
  4094  0251  1283               	bcf	3,5	;RP0=0, select bank0
  4095  0252  1303               	bcf	3,6	;RP1=0, select bank0
  4096  0253  0825               	movf	?__Umul8_16+1,w
  4097  0254  00D7               	movwf	___flmul@temp+1
  4098  0255  0824               	movf	?__Umul8_16,w
  4099  0256  00D6               	movwf	___flmul@temp
  4100  0257                     l2407:
  4101  0257  0856               	movf	___flmul@temp,w
  4102  0258  00C6               	movwf	??___flmul
  4103  0259  0857               	movf	___flmul@temp+1,w
  4104  025A  00C7               	movwf	??___flmul+1
  4105  025B  01C8               	clrf	??___flmul+2
  4106  025C  01C9               	clrf	??___flmul+3
  4107  025D  3008               	movlw	8
  4108  025E                     u3045:
  4109  025E  1003               	clrc
  4110  025F  0DC6               	rlf	??___flmul,f
  4111  0260  0DC7               	rlf	??___flmul+1,f
  4112  0261  0DC8               	rlf	??___flmul+2,f
  4113  0262  0DC9               	rlf	??___flmul+3,f
  4114  0263                     u3040:
  4115  0263  3EFF               	addlw	-1
  4116  0264  1D03               	skipz
  4117  0265  2A5E               	goto	u3045
  4118  0266  0846               	movf	??___flmul,w
  4119  0267  07D2               	addwf	___flmul@prod,f
  4120  0268  0847               	movf	??___flmul+1,w
  4121  0269  1103               	clrz
  4122  026A  1803               	skipnc
  4123  026B  3E01               	addlw	1
  4124  026C  1903               	skipnz
  4125  026D  2A6F               	goto	u3051
  4126  026E  07D3               	addwf	___flmul@prod+1,f
  4127  026F                     u3051:
  4128  026F  0848               	movf	??___flmul+2,w
  4129  0270  1103               	clrz
  4130  0271  1803               	skipnc
  4131  0272  3E01               	addlw	1
  4132  0273  1903               	skipnz
  4133  0274  2A76               	goto	u3052
  4134  0275  07D4               	addwf	___flmul@prod+2,f
  4135  0276                     u3052:
  4136  0276  0849               	movf	??___flmul+3,w
  4137  0277  1103               	clrz
  4138  0278  1803               	skipnc
  4139  0279  3E01               	addlw	1
  4140  027A  1903               	skipnz
  4141  027B  2A7D               	goto	u3053
  4142  027C  07D5               	addwf	___flmul@prod+3,f
  4143  027D                     u3053:
  4144  027D                     l2409:
  4145  027D  084C               	movf	___flmul@grs,w
  4146  027E  00C6               	movwf	??___flmul
  4147  027F  084D               	movf	___flmul@grs+1,w
  4148  0280  00C7               	movwf	??___flmul+1
  4149  0281  084E               	movf	___flmul@grs+2,w
  4150  0282  00C8               	movwf	??___flmul+2
  4151  0283  084F               	movf	___flmul@grs+3,w
  4152  0284  00C9               	movwf	??___flmul+3
  4153  0285  3018               	movlw	24
  4154  0286                     u3065:
  4155  0286  1003               	clrc
  4156  0287  0CC9               	rrf	??___flmul+3,f
  4157  0288  0CC8               	rrf	??___flmul+2,f
  4158  0289  0CC7               	rrf	??___flmul+1,f
  4159  028A  0CC6               	rrf	??___flmul,f
  4160  028B                     u3060:
  4161  028B  3EFF               	addlw	-1
  4162  028C  1D03               	skipz
  4163  028D  2A86               	goto	u3065
  4164  028E  0846               	movf	??___flmul,w
  4165  028F  07D2               	addwf	___flmul@prod,f
  4166  0290  0847               	movf	??___flmul+1,w
  4167  0291  1103               	clrz
  4168  0292  1803               	skipnc
  4169  0293  3E01               	addlw	1
  4170  0294  1903               	skipnz
  4171  0295  2A97               	goto	u3071
  4172  0296  07D3               	addwf	___flmul@prod+1,f
  4173  0297                     u3071:
  4174  0297  0848               	movf	??___flmul+2,w
  4175  0298  1103               	clrz
  4176  0299  1803               	skipnc
  4177  029A  3E01               	addlw	1
  4178  029B  1903               	skipnz
  4179  029C  2A9E               	goto	u3072
  4180  029D  07D4               	addwf	___flmul@prod+2,f
  4181  029E                     u3072:
  4182  029E  0849               	movf	??___flmul+3,w
  4183  029F  1103               	clrz
  4184  02A0  1803               	skipnc
  4185  02A1  3E01               	addlw	1
  4186  02A2  1903               	skipnz
  4187  02A3  2AA5               	goto	u3073
  4188  02A4  07D5               	addwf	___flmul@prod+3,f
  4189  02A5                     u3073:
  4190  02A5                     l2411:
  4191  02A5  3008               	movlw	8
  4192  02A6  00C6               	movwf	??___flmul
  4193  02A7                     u3085:
  4194  02A7  1003               	clrc
  4195  02A8  0DCC               	rlf	___flmul@grs,f
  4196  02A9  0DCD               	rlf	___flmul@grs+1,f
  4197  02AA  0DCE               	rlf	___flmul@grs+2,f
  4198  02AB  0DCF               	rlf	___flmul@grs+3,f
  4199  02AC  0BC6               	decfsz	??___flmul,f
  4200  02AD  2AA7               	goto	u3085
  4201  02AE                     l2413:
  4202  02AE  0851               	movf	___flmul@bexp,w
  4203  02AF  0750               	addwf	___flmul@aexp,w
  4204  02B0  00C6               	movwf	??___flmul
  4205  02B1  01C7               	clrf	??___flmul+1
  4206  02B2  0DC7               	rlf	??___flmul+1,f
  4207  02B3  0846               	movf	??___flmul,w
  4208  02B4  3E82               	addlw	130
  4209  02B5  00D6               	movwf	___flmul@temp
  4210  02B6  0847               	movf	??___flmul+1,w
  4211  02B7  1803               	skipnc
  4212  02B8  3E01               	addlw	1
  4213  02B9  3EFF               	addlw	255
  4214  02BA  00D7               	movwf	___flmul@temp+1
  4215  02BB  2AD9               	goto	l2425
  4216  02BC                     l2415:
  4217  02BC  3001               	movlw	1
  4218  02BD  00C6               	movwf	??___flmul
  4219  02BE                     u3095:
  4220  02BE  1003               	clrc
  4221  02BF  0DD2               	rlf	___flmul@prod,f
  4222  02C0  0DD3               	rlf	___flmul@prod+1,f
  4223  02C1  0DD4               	rlf	___flmul@prod+2,f
  4224  02C2  0DD5               	rlf	___flmul@prod+3,f
  4225  02C3  0BC6               	decfsz	??___flmul,f
  4226  02C4  2ABE               	goto	u3095
  4227  02C5                     l2417:
  4228  02C5  1FCF               	btfss	___flmul@grs+3,7
  4229  02C6  2AC8               	goto	u3101
  4230  02C7  2AC9               	goto	u3100
  4231  02C8                     u3101:
  4232  02C8  2ACA               	goto	l2421
  4233  02C9                     u3100:
  4234  02C9                     l2419:
  4235  02C9  1452               	bsf	___flmul@prod,0
  4236  02CA                     l2421:
  4237  02CA  3001               	movlw	1
  4238  02CB  00C6               	movwf	??___flmul
  4239  02CC                     u3115:
  4240  02CC  1003               	clrc
  4241  02CD  0DCC               	rlf	___flmul@grs,f
  4242  02CE  0DCD               	rlf	___flmul@grs+1,f
  4243  02CF  0DCE               	rlf	___flmul@grs+2,f
  4244  02D0  0DCF               	rlf	___flmul@grs+3,f
  4245  02D1  0BC6               	decfsz	??___flmul,f
  4246  02D2  2ACC               	goto	u3115
  4247  02D3                     l2423:
  4248  02D3  30FF               	movlw	255
  4249  02D4  07D6               	addwf	___flmul@temp,f
  4250  02D5  1803               	skipnc
  4251  02D6  0AD7               	incf	___flmul@temp+1,f
  4252  02D7  30FF               	movlw	255
  4253  02D8  07D7               	addwf	___flmul@temp+1,f
  4254  02D9                     l2425:
  4255  02D9  1FD4               	btfss	___flmul@prod+2,7
  4256  02DA  2ADC               	goto	u3121
  4257  02DB  2ADD               	goto	u3120
  4258  02DC                     u3121:
  4259  02DC  2ABC               	goto	l2415
  4260  02DD                     u3120:
  4261  02DD                     l2427:
  4262  02DD  01D0               	clrf	___flmul@aexp
  4263  02DE                     l2429:
  4264  02DE  1FCF               	btfss	___flmul@grs+3,7
  4265  02DF  2AE1               	goto	u3131
  4266  02E0  2AE2               	goto	u3130
  4267  02E1                     u3131:
  4268  02E1  2AFE               	goto	l2437
  4269  02E2                     u3130:
  4270  02E2                     l2431:
  4271  02E2  30FF               	movlw	255
  4272  02E3  054C               	andwf	___flmul@grs,w
  4273  02E4  00C6               	movwf	??___flmul
  4274  02E5  30FF               	movlw	255
  4275  02E6  054D               	andwf	___flmul@grs+1,w
  4276  02E7  00C7               	movwf	??___flmul+1
  4277  02E8  30FF               	movlw	255
  4278  02E9  054E               	andwf	___flmul@grs+2,w
  4279  02EA  00C8               	movwf	??___flmul+2
  4280  02EB  307F               	movlw	127
  4281  02EC  054F               	andwf	___flmul@grs+3,w
  4282  02ED  00C9               	movwf	??___flmul+3
  4283  02EE  0849               	movf	??___flmul+3,w
  4284  02EF  0448               	iorwf	??___flmul+2,w
  4285  02F0  0447               	iorwf	??___flmul+1,w
  4286  02F1  0446               	iorwf	??___flmul,w
  4287  02F2  1903               	skipnz
  4288  02F3  2AF5               	goto	u3141
  4289  02F4  2AF6               	goto	u3140
  4290  02F5                     u3141:
  4291  02F5  2AF9               	goto	l690
  4292  02F6                     u3140:
  4293  02F6                     l2433:
  4294  02F6  01D0               	clrf	___flmul@aexp
  4295  02F7  0AD0               	incf	___flmul@aexp,f
  4296  02F8  2AFE               	goto	l2437
  4297  02F9                     l690:
  4298  02F9  1C52               	btfss	___flmul@prod,0
  4299  02FA  2AFC               	goto	u3151
  4300  02FB  2AFD               	goto	u3150
  4301  02FC                     u3151:
  4302  02FC  2AFE               	goto	l2437
  4303  02FD                     u3150:
  4304  02FD  2AF6               	goto	l2433
  4305  02FE                     l2437:
  4306  02FE  0850               	movf	___flmul@aexp,w
  4307  02FF  1903               	btfsc	3,2
  4308  0300  2B02               	goto	u3161
  4309  0301  2B03               	goto	u3160
  4310  0302                     u3161:
  4311  0302  2B34               	goto	l2447
  4312  0303                     u3160:
  4313  0303                     l2439:
  4314  0303  3001               	movlw	1
  4315  0304  07D2               	addwf	___flmul@prod,f
  4316  0305  3000               	movlw	0
  4317  0306  1803               	skipnc
  4318  0307  3001               	movlw	1
  4319  0308  07D3               	addwf	___flmul@prod+1,f
  4320  0309  3000               	movlw	0
  4321  030A  1803               	skipnc
  4322  030B  3001               	movlw	1
  4323  030C  07D4               	addwf	___flmul@prod+2,f
  4324  030D  3000               	movlw	0
  4325  030E  1803               	skipnc
  4326  030F  3001               	movlw	1
  4327  0310  07D5               	addwf	___flmul@prod+3,f
  4328  0311                     l2441:
  4329  0311  1C55               	btfss	___flmul@prod+3,0
  4330  0312  2B14               	goto	u3171
  4331  0313  2B15               	goto	u3170
  4332  0314                     u3171:
  4333  0314  2B34               	goto	l2447
  4334  0315                     u3170:
  4335  0315                     l2443:
  4336  0315  0852               	movf	___flmul@prod,w
  4337  0316  00C6               	movwf	??___flmul
  4338  0317  0853               	movf	___flmul@prod+1,w
  4339  0318  00C7               	movwf	??___flmul+1
  4340  0319  0854               	movf	___flmul@prod+2,w
  4341  031A  00C8               	movwf	??___flmul+2
  4342  031B  0855               	movf	___flmul@prod+3,w
  4343  031C  00C9               	movwf	??___flmul+3
  4344  031D  3001               	movlw	1
  4345  031E  00CA               	movwf	??___flmul+4
  4346  031F                     u3185:
  4347  031F  0D49               	rlf	??___flmul+3,w
  4348  0320  0CC9               	rrf	??___flmul+3,f
  4349  0321  0CC8               	rrf	??___flmul+2,f
  4350  0322  0CC7               	rrf	??___flmul+1,f
  4351  0323  0CC6               	rrf	??___flmul,f
  4352  0324                     u3180:
  4353  0324  0BCA               	decfsz	??___flmul+4,f
  4354  0325  2B1F               	goto	u3185
  4355  0326  0849               	movf	??___flmul+3,w
  4356  0327  00D5               	movwf	___flmul@prod+3
  4357  0328  0848               	movf	??___flmul+2,w
  4358  0329  00D4               	movwf	___flmul@prod+2
  4359  032A  0847               	movf	??___flmul+1,w
  4360  032B  00D3               	movwf	___flmul@prod+1
  4361  032C  0846               	movf	??___flmul,w
  4362  032D  00D2               	movwf	___flmul@prod
  4363  032E                     l2445:
  4364  032E  3001               	movlw	1
  4365  032F  07D6               	addwf	___flmul@temp,f
  4366  0330  1803               	skipnc
  4367  0331  0AD7               	incf	___flmul@temp+1,f
  4368  0332  3000               	movlw	0
  4369  0333  07D7               	addwf	___flmul@temp+1,f
  4370  0334                     l2447:
  4371  0334  0857               	movf	___flmul@temp+1,w
  4372  0335  3A80               	xorlw	128
  4373  0336  00FF               	movwf	btemp+1
  4374  0337  3080               	movlw	128
  4375  0338  027F               	subwf	btemp+1,w
  4376  0339  1D03               	skipz
  4377  033A  2B3D               	goto	u3195
  4378  033B  30FF               	movlw	255
  4379  033C  0256               	subwf	___flmul@temp,w
  4380  033D                     u3195:
  4381  033D  1C03               	skipc
  4382  033E  2B40               	goto	u3191
  4383  033F  2B41               	goto	u3190
  4384  0340                     u3191:
  4385  0340  2B4C               	goto	l2451
  4386  0341                     u3190:
  4387  0341                     l2449:
  4388  0341  307F               	movlw	127
  4389  0342  1283               	bcf	3,5	;RP0=0, select bank0
  4390  0343  1303               	bcf	3,6	;RP1=0, select bank0
  4391  0344  00D5               	movwf	___flmul@prod+3
  4392  0345  3080               	movlw	128
  4393  0346  00D4               	movwf	___flmul@prod+2
  4394  0347  3000               	movlw	0
  4395  0348  00D3               	movwf	___flmul@prod+1
  4396  0349  3000               	movlw	0
  4397  034A  00D2               	movwf	___flmul@prod
  4398  034B  2B81               	goto	l696
  4399  034C                     l2451:
  4400  034C  1283               	bcf	3,5	;RP0=0, select bank0
  4401  034D  1303               	bcf	3,6	;RP1=0, select bank0
  4402  034E  0857               	movf	___flmul@temp+1,w
  4403  034F  3A80               	xorlw	128
  4404  0350  00FF               	movwf	btemp+1
  4405  0351  3080               	movlw	128
  4406  0352  027F               	subwf	btemp+1,w
  4407  0353  1D03               	skipz
  4408  0354  2B57               	goto	u3205
  4409  0355  3001               	movlw	1
  4410  0356  0256               	subwf	___flmul@temp,w
  4411  0357                     u3205:
  4412  0357  1803               	skipnc
  4413  0358  2B5A               	goto	u3201
  4414  0359  2B5B               	goto	u3200
  4415  035A                     u3201:
  4416  035A  2B67               	goto	l2457
  4417  035B                     u3200:
  4418  035B                     l2453:
  4419  035B  3000               	movlw	0
  4420  035C  1283               	bcf	3,5	;RP0=0, select bank0
  4421  035D  1303               	bcf	3,6	;RP1=0, select bank0
  4422  035E  00D5               	movwf	___flmul@prod+3
  4423  035F  3000               	movlw	0
  4424  0360  00D4               	movwf	___flmul@prod+2
  4425  0361  3000               	movlw	0
  4426  0362  00D3               	movwf	___flmul@prod+1
  4427  0363  3000               	movlw	0
  4428  0364  00D2               	movwf	___flmul@prod
  4429  0365                     l2455:
  4430  0365  01CB               	clrf	___flmul@sign
  4431  0366  2B81               	goto	l696
  4432  0367                     l2457:
  4433  0367  1283               	bcf	3,5	;RP0=0, select bank0
  4434  0368  1303               	bcf	3,6	;RP1=0, select bank0
  4435  0369  0856               	movf	___flmul@temp,w
  4436  036A  00C6               	movwf	??___flmul
  4437  036B  0846               	movf	??___flmul,w
  4438  036C  00D1               	movwf	___flmul@bexp
  4439  036D  30FF               	movlw	255
  4440  036E  05D2               	andwf	___flmul@prod,f
  4441  036F  30FF               	movlw	255
  4442  0370  05D3               	andwf	___flmul@prod+1,f
  4443  0371  307F               	movlw	127
  4444  0372  05D4               	andwf	___flmul@prod+2,f
  4445  0373  3000               	movlw	0
  4446  0374  05D5               	andwf	___flmul@prod+3,f
  4447  0375                     l2459:
  4448  0375  1C51               	btfss	___flmul@bexp,0
  4449  0376  2B78               	goto	u3211
  4450  0377  2B79               	goto	u3210
  4451  0378                     u3211:
  4452  0378  2B7A               	goto	l2463
  4453  0379                     u3210:
  4454  0379                     l2461:
  4455  0379  17D4               	bsf	___flmul@prod+2,7
  4456  037A                     l2463:
  4457  037A  0851               	movf	___flmul@bexp,w
  4458  037B  00C6               	movwf	??___flmul
  4459  037C  1003               	clrc
  4460  037D  0C46               	rrf	??___flmul,w
  4461  037E  00C7               	movwf	??___flmul+1
  4462  037F  0847               	movf	??___flmul+1,w
  4463  0380  00D5               	movwf	___flmul@prod+3
  4464  0381                     l696:
  4465  0381  084B               	movf	___flmul@sign,w
  4466  0382  00C6               	movwf	??___flmul
  4467  0383  0846               	movf	??___flmul,w
  4468  0384  04D5               	iorwf	___flmul@prod+3,f
  4469  0385                     l2465:
  4470  0385  0855               	movf	___flmul@prod+3,w
  4471  0386  00C1               	movwf	?___flmul+3
  4472  0387  0854               	movf	___flmul@prod+2,w
  4473  0388  00C0               	movwf	?___flmul+2
  4474  0389  0853               	movf	___flmul@prod+1,w
  4475  038A  00BF               	movwf	?___flmul+1
  4476  038B  0852               	movf	___flmul@prod,w
  4477  038C  00BE               	movwf	?___flmul
  4478  038D                     l684:
  4479  038D  0008               	return
  4480  038E                     __end_of___flmul:
  4481                           
  4482                           	psect	text8
  4483  07D4                     __ptext8:	
  4484 ;; *************** function __Umul8_16 *****************
  4485 ;; Defined at:
  4486 ;;		line 4 in file "C:\Program Files\Microchip\xc8\v2.36\pic\sources\c90\common\Umul8_16.c"
  4487 ;; Parameters:    Size  Location     Type
  4488 ;;  multiplier      1    wreg     unsigned char 
  4489 ;;  multiplicand    1    4[BANK0 ] unsigned char 
  4490 ;; Auto vars:     Size  Location     Type
  4491 ;;  multiplier      1   12[BANK0 ] unsigned char 
  4492 ;;  word_mpld       2   10[BANK0 ] unsigned int 
  4493 ;;  product         2    8[BANK0 ] unsigned int 
  4494 ;; Return value:  Size  Location     Type
  4495 ;;                  2    4[BANK0 ] unsigned int 
  4496 ;; Registers used:
  4497 ;;		wreg, status,2, status,0
  4498 ;; Tracked objects:
  4499 ;;		On entry : 0/0
  4500 ;;		On exit  : 0/0
  4501 ;;		Unchanged: 0/0
  4502 ;; Data sizes:     COMMON   BANK0   BANK1   BANK3   BANK2
  4503 ;;      Params:         0       2       0       0       0
  4504 ;;      Locals:         0       5       0       0       0
  4505 ;;      Temps:          0       2       0       0       0
  4506 ;;      Totals:         0       9       0       0       0
  4507 ;;Total ram usage:        9 bytes
  4508 ;; Hardware stack levels used: 1
  4509 ;; Hardware stack levels required when called: 4
  4510 ;; This function calls:
  4511 ;;		Nothing
  4512 ;; This function is called by:
  4513 ;;		___flmul
  4514 ;; This function uses a non-reentrant model
  4515 ;;
  4516                           
  4517  07D4                     __Umul8_16:	
  4518                           ;psect for function __Umul8_16
  4519                           
  4520                           
  4521                           ;incstack = 0
  4522                           ; Regs used in __Umul8_16: [wreg+status,2+status,0]
  4523                           ;__Umul8_16@multiplier stored from wreg
  4524  07D4  1283               	bcf	3,5	;RP0=0, select bank0
  4525  07D5  1303               	bcf	3,6	;RP1=0, select bank0
  4526  07D6  00AC               	movwf	__Umul8_16@multiplier
  4527  07D7                     l1911:
  4528  07D7  01A8               	clrf	__Umul8_16@product
  4529  07D8  01A9               	clrf	__Umul8_16@product+1
  4530  07D9                     l1913:
  4531  07D9  0824               	movf	__Umul8_16@multiplicand,w
  4532  07DA  00A6               	movwf	??__Umul8_16
  4533  07DB  01A7               	clrf	??__Umul8_16+1
  4534  07DC  0826               	movf	??__Umul8_16,w
  4535  07DD  00AA               	movwf	__Umul8_16@word_mpld
  4536  07DE  0827               	movf	??__Umul8_16+1,w
  4537  07DF  00AB               	movwf	__Umul8_16@word_mpld+1
  4538  07E0                     l1915:
  4539  07E0  1C2C               	btfss	__Umul8_16@multiplier,0
  4540  07E1  2FE3               	goto	u2001
  4541  07E2  2FE4               	goto	u2000
  4542  07E3                     u2001:
  4543  07E3  2FEA               	goto	l703
  4544  07E4                     u2000:
  4545  07E4                     l1917:
  4546  07E4  082A               	movf	__Umul8_16@word_mpld,w
  4547  07E5  07A8               	addwf	__Umul8_16@product,f
  4548  07E6  1803               	skipnc
  4549  07E7  0AA9               	incf	__Umul8_16@product+1,f
  4550  07E8  082B               	movf	__Umul8_16@word_mpld+1,w
  4551  07E9  07A9               	addwf	__Umul8_16@product+1,f
  4552  07EA                     l703:
  4553  07EA  3001               	movlw	1
  4554  07EB                     u2015:
  4555  07EB  1003               	clrc
  4556  07EC  0DAA               	rlf	__Umul8_16@word_mpld,f
  4557  07ED  0DAB               	rlf	__Umul8_16@word_mpld+1,f
  4558  07EE  3EFF               	addlw	-1
  4559  07EF  1D03               	skipz
  4560  07F0  2FEB               	goto	u2015
  4561  07F1  1003               	clrc
  4562  07F2  0CAC               	rrf	__Umul8_16@multiplier,f
  4563  07F3                     l1919:
  4564  07F3  082C               	movf	__Umul8_16@multiplier,w
  4565  07F4  1D03               	btfss	3,2
  4566  07F5  2FF7               	goto	u2021
  4567  07F6  2FF8               	goto	u2020
  4568  07F7                     u2021:
  4569  07F7  2FE0               	goto	l1915
  4570  07F8                     u2020:
  4571  07F8                     l1921:
  4572  07F8  0829               	movf	__Umul8_16@product+1,w
  4573  07F9  00A5               	movwf	?__Umul8_16+1
  4574  07FA  0828               	movf	__Umul8_16@product,w
  4575  07FB  00A4               	movwf	?__Umul8_16
  4576  07FC                     l705:
  4577  07FC  0008               	return
  4578  07FD                     __end_of__Umul8_16:
  4579                           
  4580                           	psect	text9
  4581  038E                     __ptext9:	
  4582 ;; *************** function ___fldiv *****************
  4583 ;; Defined at:
  4584 ;;		line 8 in file "C:\Program Files\Microchip\xc8\v2.36\pic\sources\c90\common\sprcdiv.c"
  4585 ;; Parameters:    Size  Location     Type
  4586 ;;  a               4   56[BANK0 ] unsigned int 
  4587 ;;  b               4   60[BANK0 ] unsigned int 
  4588 ;; Auto vars:     Size  Location     Type
  4589 ;;  grs             4    7[BANK1 ] unsigned long 
  4590 ;;  rem             4    0[BANK1 ] unsigned long 
  4591 ;;  new_exp         2    5[BANK1 ] int 
  4592 ;;  aexp            1   12[BANK1 ] unsigned char 
  4593 ;;  bexp            1   11[BANK1 ] unsigned char 
  4594 ;;  sign            1    4[BANK1 ] unsigned char 
  4595 ;; Return value:  Size  Location     Type
  4596 ;;                  4   56[BANK0 ] unsigned char 
  4597 ;; Registers used:
  4598 ;;		wreg, status,2, status,0, btemp+1
  4599 ;; Tracked objects:
  4600 ;;		On entry : 0/0
  4601 ;;		On exit  : 0/0
  4602 ;;		Unchanged: 0/0
  4603 ;; Data sizes:     COMMON   BANK0   BANK1   BANK3   BANK2
  4604 ;;      Params:         0       8       0       0       0
  4605 ;;      Locals:         0       0      13       0       0
  4606 ;;      Temps:          0       5       0       0       0
  4607 ;;      Totals:         0      13      13       0       0
  4608 ;;Total ram usage:       26 bytes
  4609 ;; Hardware stack levels used: 1
  4610 ;; Hardware stack levels required when called: 4
  4611 ;; This function calls:
  4612 ;;		Nothing
  4613 ;; This function is called by:
  4614 ;;		_Lcd_Padrao
  4615 ;; This function uses a non-reentrant model
  4616 ;;
  4617                           
  4618  038E                     ___fldiv:	
  4619                           ;psect for function ___fldiv
  4620                           
  4621  038E                     l2187:	
  4622                           ;incstack = 0
  4623                           ; Regs used in ___fldiv: [wreg+status,2+status,0+btemp+1]
  4624                           
  4625  038E  1283               	bcf	3,5	;RP0=0, select bank0
  4626  038F  1303               	bcf	3,6	;RP1=0, select bank0
  4627  0390  085F               	movf	___fldiv@b+3,w
  4628  0391  3980               	andlw	128
  4629  0392  00E0               	movwf	??___fldiv
  4630  0393  0860               	movf	??___fldiv,w
  4631  0394  1683               	bsf	3,5	;RP0=1, select bank1
  4632  0395  1303               	bcf	3,6	;RP1=0, select bank1
  4633  0396  00A4               	movwf	___fldiv@sign^(0+128)
  4634  0397                     l2189:
  4635  0397  1283               	bcf	3,5	;RP0=0, select bank0
  4636  0398  1303               	bcf	3,6	;RP1=0, select bank0
  4637  0399  085F               	movf	___fldiv@b+3,w
  4638  039A  00E0               	movwf	??___fldiv
  4639  039B  0760               	addwf	??___fldiv,w
  4640  039C  00E1               	movwf	??___fldiv+1
  4641  039D  0861               	movf	??___fldiv+1,w
  4642  039E  1683               	bsf	3,5	;RP0=1, select bank1
  4643  039F  1303               	bcf	3,6	;RP1=0, select bank1
  4644  03A0  00AB               	movwf	___fldiv@bexp^(0+128)
  4645  03A1                     l2191:
  4646  03A1  1283               	bcf	3,5	;RP0=0, select bank0
  4647  03A2  1303               	bcf	3,6	;RP1=0, select bank0
  4648  03A3  1FDE               	btfss	___fldiv@b+2,7
  4649  03A4  2BA6               	goto	u2551
  4650  03A5  2BA7               	goto	u2550
  4651  03A6                     u2551:
  4652  03A6  2BAA               	goto	l2195
  4653  03A7                     u2550:
  4654  03A7                     l2193:
  4655  03A7  1683               	bsf	3,5	;RP0=1, select bank1
  4656  03A8  1303               	bcf	3,6	;RP1=0, select bank1
  4657  03A9  142B               	bsf	___fldiv@bexp^(0+128),0
  4658  03AA                     l2195:
  4659  03AA  1683               	bsf	3,5	;RP0=1, select bank1
  4660  03AB  1303               	bcf	3,6	;RP1=0, select bank1
  4661  03AC  082B               	movf	___fldiv@bexp^(0+128),w
  4662  03AD  1903               	btfsc	3,2
  4663  03AE  2BB0               	goto	u2561
  4664  03AF  2BB1               	goto	u2560
  4665  03B0                     u2561:
  4666  03B0  2BC4               	goto	l2205
  4667  03B1                     u2560:
  4668  03B1                     l2197:
  4669  03B1  0A2B               	incf	___fldiv@bexp^(0+128),w
  4670  03B2  1D03               	btfss	3,2
  4671  03B3  2BB5               	goto	u2571
  4672  03B4  2BB6               	goto	u2570
  4673  03B5                     u2571:
  4674  03B5  2BC0               	goto	l2201
  4675  03B6                     u2570:
  4676  03B6                     l2199:
  4677  03B6  3000               	movlw	0
  4678  03B7  1283               	bcf	3,5	;RP0=0, select bank0
  4679  03B8  1303               	bcf	3,6	;RP1=0, select bank0
  4680  03B9  00DF               	movwf	___fldiv@b+3
  4681  03BA  3000               	movlw	0
  4682  03BB  00DE               	movwf	___fldiv@b+2
  4683  03BC  3000               	movlw	0
  4684  03BD  00DD               	movwf	___fldiv@b+1
  4685  03BE  3000               	movlw	0
  4686  03BF  00DC               	movwf	___fldiv@b
  4687  03C0                     l2201:
  4688  03C0  1283               	bcf	3,5	;RP0=0, select bank0
  4689  03C1  17DE               	bsf	___fldiv@b+2,7
  4690  03C2                     l2203:
  4691  03C2  01DF               	clrf	___fldiv@b+3
  4692  03C3  2BCE               	goto	l2207
  4693  03C4                     l2205:
  4694  03C4  3000               	movlw	0
  4695  03C5  1283               	bcf	3,5	;RP0=0, select bank0
  4696  03C6  1303               	bcf	3,6	;RP1=0, select bank0
  4697  03C7  00DF               	movwf	___fldiv@b+3
  4698  03C8  3000               	movlw	0
  4699  03C9  00DE               	movwf	___fldiv@b+2
  4700  03CA  3000               	movlw	0
  4701  03CB  00DD               	movwf	___fldiv@b+1
  4702  03CC  3000               	movlw	0
  4703  03CD  00DC               	movwf	___fldiv@b
  4704  03CE                     l2207:
  4705  03CE  085B               	movf	___fldiv@a+3,w
  4706  03CF  3980               	andlw	128
  4707  03D0  00E0               	movwf	??___fldiv
  4708  03D1  0860               	movf	??___fldiv,w
  4709  03D2  1683               	bsf	3,5	;RP0=1, select bank1
  4710  03D3  1303               	bcf	3,6	;RP1=0, select bank1
  4711  03D4  06A4               	xorwf	___fldiv@sign^(0+128),f
  4712  03D5                     l2209:
  4713  03D5  1283               	bcf	3,5	;RP0=0, select bank0
  4714  03D6  1303               	bcf	3,6	;RP1=0, select bank0
  4715  03D7  085B               	movf	___fldiv@a+3,w
  4716  03D8  00E0               	movwf	??___fldiv
  4717  03D9  0760               	addwf	??___fldiv,w
  4718  03DA  00E1               	movwf	??___fldiv+1
  4719  03DB  0861               	movf	??___fldiv+1,w
  4720  03DC  1683               	bsf	3,5	;RP0=1, select bank1
  4721  03DD  1303               	bcf	3,6	;RP1=0, select bank1
  4722  03DE  00AC               	movwf	___fldiv@aexp^(0+128)
  4723  03DF                     l2211:
  4724  03DF  1283               	bcf	3,5	;RP0=0, select bank0
  4725  03E0  1303               	bcf	3,6	;RP1=0, select bank0
  4726  03E1  1FDA               	btfss	___fldiv@a+2,7
  4727  03E2  2BE4               	goto	u2581
  4728  03E3  2BE5               	goto	u2580
  4729  03E4                     u2581:
  4730  03E4  2BE8               	goto	l2215
  4731  03E5                     u2580:
  4732  03E5                     l2213:
  4733  03E5  1683               	bsf	3,5	;RP0=1, select bank1
  4734  03E6  1303               	bcf	3,6	;RP1=0, select bank1
  4735  03E7  142C               	bsf	___fldiv@aexp^(0+128),0
  4736  03E8                     l2215:
  4737  03E8  1683               	bsf	3,5	;RP0=1, select bank1
  4738  03E9  1303               	bcf	3,6	;RP1=0, select bank1
  4739  03EA  082C               	movf	___fldiv@aexp^(0+128),w
  4740  03EB  1903               	btfsc	3,2
  4741  03EC  2BEE               	goto	u2591
  4742  03ED  2BEF               	goto	u2590
  4743  03EE                     u2591:
  4744  03EE  2C02               	goto	l2225
  4745  03EF                     u2590:
  4746  03EF                     l2217:
  4747  03EF  0A2C               	incf	___fldiv@aexp^(0+128),w
  4748  03F0  1D03               	btfss	3,2
  4749  03F1  2BF3               	goto	u2601
  4750  03F2  2BF4               	goto	u2600
  4751  03F3                     u2601:
  4752  03F3  2BFE               	goto	l2221
  4753  03F4                     u2600:
  4754  03F4                     l2219:
  4755  03F4  3000               	movlw	0
  4756  03F5  1283               	bcf	3,5	;RP0=0, select bank0
  4757  03F6  1303               	bcf	3,6	;RP1=0, select bank0
  4758  03F7  00DB               	movwf	___fldiv@a+3
  4759  03F8  3000               	movlw	0
  4760  03F9  00DA               	movwf	___fldiv@a+2
  4761  03FA  3000               	movlw	0
  4762  03FB  00D9               	movwf	___fldiv@a+1
  4763  03FC  3000               	movlw	0
  4764  03FD  00D8               	movwf	___fldiv@a
  4765  03FE                     l2221:
  4766  03FE  1283               	bcf	3,5	;RP0=0, select bank0
  4767  03FF  17DA               	bsf	___fldiv@a+2,7
  4768  0400                     l2223:
  4769  0400  01DB               	clrf	___fldiv@a+3
  4770  0401  2C0C               	goto	l644
  4771  0402                     l2225:
  4772  0402  3000               	movlw	0
  4773  0403  1283               	bcf	3,5	;RP0=0, select bank0
  4774  0404  1303               	bcf	3,6	;RP1=0, select bank0
  4775  0405  00DB               	movwf	___fldiv@a+3
  4776  0406  3000               	movlw	0
  4777  0407  00DA               	movwf	___fldiv@a+2
  4778  0408  3000               	movlw	0
  4779  0409  00D9               	movwf	___fldiv@a+1
  4780  040A  3000               	movlw	0
  4781  040B  00D8               	movwf	___fldiv@a
  4782  040C                     l644:
  4783  040C  085B               	movf	___fldiv@a+3,w
  4784  040D  045A               	iorwf	___fldiv@a+2,w
  4785  040E  0459               	iorwf	___fldiv@a+1,w
  4786  040F  0458               	iorwf	___fldiv@a,w
  4787  0410  1D03               	skipz
  4788  0411  2C13               	goto	u2611
  4789  0412  2C14               	goto	u2610
  4790  0413                     u2611:
  4791  0413  2C31               	goto	l2235
  4792  0414                     u2610:
  4793  0414                     l2227:
  4794  0414  3000               	movlw	0
  4795  0415  00DF               	movwf	___fldiv@b+3
  4796  0416  3000               	movlw	0
  4797  0417  00DE               	movwf	___fldiv@b+2
  4798  0418  3000               	movlw	0
  4799  0419  00DD               	movwf	___fldiv@b+1
  4800  041A  3000               	movlw	0
  4801  041B  00DC               	movwf	___fldiv@b
  4802  041C  3080               	movlw	128
  4803  041D  04DE               	iorwf	___fldiv@b+2,f
  4804  041E  307F               	movlw	127
  4805  041F  04DF               	iorwf	___fldiv@b+3,f
  4806  0420                     l2229:
  4807  0420  1683               	bsf	3,5	;RP0=1, select bank1
  4808  0421  1303               	bcf	3,6	;RP1=0, select bank1
  4809  0422  0824               	movf	___fldiv@sign^(0+128),w
  4810  0423  1283               	bcf	3,5	;RP0=0, select bank0
  4811  0424  1303               	bcf	3,6	;RP1=0, select bank0
  4812  0425  00E0               	movwf	??___fldiv
  4813  0426  0860               	movf	??___fldiv,w
  4814  0427  04DF               	iorwf	___fldiv@b+3,f
  4815  0428                     l2231:
  4816  0428  085F               	movf	___fldiv@b+3,w
  4817  0429  00DB               	movwf	?___fldiv+3
  4818  042A  085E               	movf	___fldiv@b+2,w
  4819  042B  00DA               	movwf	?___fldiv+2
  4820  042C  085D               	movf	___fldiv@b+1,w
  4821  042D  00D9               	movwf	?___fldiv+1
  4822  042E  085C               	movf	___fldiv@b,w
  4823  042F  00D8               	movwf	?___fldiv
  4824  0430  2E2D               	goto	l646
  4825  0431                     l2235:
  4826  0431  1683               	bsf	3,5	;RP0=1, select bank1
  4827  0432  1303               	bcf	3,6	;RP1=0, select bank1
  4828  0433  082B               	movf	___fldiv@bexp^(0+128),w
  4829  0434  1D03               	btfss	3,2
  4830  0435  2C37               	goto	u2621
  4831  0436  2C38               	goto	u2620
  4832  0437                     u2621:
  4833  0437  2C43               	goto	l2241
  4834  0438                     u2620:
  4835  0438                     l2237:
  4836  0438  3000               	movlw	0
  4837  0439  1283               	bcf	3,5	;RP0=0, select bank0
  4838  043A  1303               	bcf	3,6	;RP1=0, select bank0
  4839  043B  00DB               	movwf	?___fldiv+3
  4840  043C  3000               	movlw	0
  4841  043D  00DA               	movwf	?___fldiv+2
  4842  043E  3000               	movlw	0
  4843  043F  00D9               	movwf	?___fldiv+1
  4844  0440  3000               	movlw	0
  4845  0441  00D8               	movwf	?___fldiv
  4846  0442  2E2D               	goto	l646
  4847  0443                     l2241:
  4848  0443  082B               	movf	___fldiv@bexp^(0+128),w
  4849  0444  1283               	bcf	3,5	;RP0=0, select bank0
  4850  0445  1303               	bcf	3,6	;RP1=0, select bank0
  4851  0446  00E0               	movwf	??___fldiv
  4852  0447  01E1               	clrf	??___fldiv+1
  4853  0448  0861               	movf	??___fldiv+1,w
  4854  0449  00E3               	movwf	??___fldiv+3
  4855  044A  1683               	bsf	3,5	;RP0=1, select bank1
  4856  044B  1303               	bcf	3,6	;RP1=0, select bank1
  4857  044C  082C               	movf	___fldiv@aexp^(0+128),w
  4858  044D  1283               	bcf	3,5	;RP0=0, select bank0
  4859  044E  1303               	bcf	3,6	;RP1=0, select bank0
  4860  044F  0260               	subwf	??___fldiv,w
  4861  0450  00E2               	movwf	??___fldiv+2
  4862  0451  1C03               	skipc
  4863  0452  03E3               	decf	??___fldiv+3,f
  4864  0453  0862               	movf	??___fldiv+2,w
  4865  0454  3E7F               	addlw	127
  4866  0455  1683               	bsf	3,5	;RP0=1, select bank1
  4867  0456  1303               	bcf	3,6	;RP1=0, select bank1
  4868  0457  00A5               	movwf	___fldiv@new_exp^(0+128)
  4869  0458  1283               	bcf	3,5	;RP0=0, select bank0
  4870  0459  1303               	bcf	3,6	;RP1=0, select bank0
  4871  045A  0863               	movf	??___fldiv+3,w
  4872  045B  1803               	skipnc
  4873  045C  3E01               	addlw	1
  4874  045D  3E00               	addlw	0
  4875  045E  1683               	bsf	3,5	;RP0=1, select bank1
  4876  045F  1303               	bcf	3,6	;RP1=0, select bank1
  4877  0460  00A6               	movwf	(___fldiv@new_exp+1)^(0+128)
  4878  0461                     l2243:
  4879  0461  1283               	bcf	3,5	;RP0=0, select bank0
  4880  0462  1303               	bcf	3,6	;RP1=0, select bank0
  4881  0463  085F               	movf	___fldiv@b+3,w
  4882  0464  1683               	bsf	3,5	;RP0=1, select bank1
  4883  0465  1303               	bcf	3,6	;RP1=0, select bank1
  4884  0466  00A3               	movwf	(___fldiv@rem+3)^(0+128)
  4885  0467  1283               	bcf	3,5	;RP0=0, select bank0
  4886  0468  1303               	bcf	3,6	;RP1=0, select bank0
  4887  0469  085E               	movf	___fldiv@b+2,w
  4888  046A  1683               	bsf	3,5	;RP0=1, select bank1
  4889  046B  1303               	bcf	3,6	;RP1=0, select bank1
  4890  046C  00A2               	movwf	(___fldiv@rem+2)^(0+128)
  4891  046D  1283               	bcf	3,5	;RP0=0, select bank0
  4892  046E  1303               	bcf	3,6	;RP1=0, select bank0
  4893  046F  085D               	movf	___fldiv@b+1,w
  4894  0470  1683               	bsf	3,5	;RP0=1, select bank1
  4895  0471  1303               	bcf	3,6	;RP1=0, select bank1
  4896  0472  00A1               	movwf	(___fldiv@rem+1)^(0+128)
  4897  0473  1283               	bcf	3,5	;RP0=0, select bank0
  4898  0474  1303               	bcf	3,6	;RP1=0, select bank0
  4899  0475  085C               	movf	___fldiv@b,w
  4900  0476  1683               	bsf	3,5	;RP0=1, select bank1
  4901  0477  1303               	bcf	3,6	;RP1=0, select bank1
  4902  0478  00A0               	movwf	___fldiv@rem^(0+128)
  4903  0479                     l2245:
  4904  0479  3000               	movlw	0
  4905  047A  1283               	bcf	3,5	;RP0=0, select bank0
  4906  047B  1303               	bcf	3,6	;RP1=0, select bank0
  4907  047C  00DF               	movwf	___fldiv@b+3
  4908  047D  3000               	movlw	0
  4909  047E  00DE               	movwf	___fldiv@b+2
  4910  047F  3000               	movlw	0
  4911  0480  00DD               	movwf	___fldiv@b+1
  4912  0481  3000               	movlw	0
  4913  0482  00DC               	movwf	___fldiv@b
  4914  0483                     l2247:
  4915  0483  3000               	movlw	0
  4916  0484  1683               	bsf	3,5	;RP0=1, select bank1
  4917  0485  1303               	bcf	3,6	;RP1=0, select bank1
  4918  0486  00AA               	movwf	(___fldiv@grs+3)^(0+128)
  4919  0487  3000               	movlw	0
  4920  0488  00A9               	movwf	(___fldiv@grs+2)^(0+128)
  4921  0489  3000               	movlw	0
  4922  048A  00A8               	movwf	(___fldiv@grs+1)^(0+128)
  4923  048B  3000               	movlw	0
  4924  048C  00A7               	movwf	___fldiv@grs^(0+128)
  4925  048D                     l2249:
  4926  048D  01AC               	clrf	___fldiv@aexp^(0+128)
  4927  048E  2D15               	goto	l2269
  4928  048F                     l2251:
  4929  048F  082C               	movf	___fldiv@aexp^(0+128),w
  4930  0490  1903               	btfsc	3,2
  4931  0491  2C93               	goto	u2631
  4932  0492  2C94               	goto	u2630
  4933  0493                     u2631:
  4934  0493  2CC3               	goto	l2261
  4935  0494                     u2630:
  4936  0494                     l2253:
  4937  0494  3001               	movlw	1
  4938  0495  1283               	bcf	3,5	;RP0=0, select bank0
  4939  0496  1303               	bcf	3,6	;RP1=0, select bank0
  4940  0497  00E0               	movwf	??___fldiv
  4941  0498                     u2645:
  4942  0498  1003               	clrc
  4943  0499  1683               	bsf	3,5	;RP0=1, select bank1
  4944  049A  1303               	bcf	3,6	;RP1=0, select bank1
  4945  049B  0DA0               	rlf	___fldiv@rem^(0+128),f
  4946  049C  0DA1               	rlf	(___fldiv@rem+1)^(0+128),f
  4947  049D  0DA2               	rlf	(___fldiv@rem+2)^(0+128),f
  4948  049E  0DA3               	rlf	(___fldiv@rem+3)^(0+128),f
  4949  049F  1283               	bcf	3,5	;RP0=0, select bank0
  4950  04A0  1303               	bcf	3,6	;RP1=0, select bank0
  4951  04A1  0BE0               	decfsz	??___fldiv,f
  4952  04A2  2C98               	goto	u2645
  4953  04A3  3001               	movlw	1
  4954  04A4  00E0               	movwf	??___fldiv
  4955  04A5                     u2655:
  4956  04A5  1003               	clrc
  4957  04A6  0DDC               	rlf	___fldiv@b,f
  4958  04A7  0DDD               	rlf	___fldiv@b+1,f
  4959  04A8  0DDE               	rlf	___fldiv@b+2,f
  4960  04A9  0DDF               	rlf	___fldiv@b+3,f
  4961  04AA  0BE0               	decfsz	??___fldiv,f
  4962  04AB  2CA5               	goto	u2655
  4963  04AC                     l2255:
  4964  04AC  1683               	bsf	3,5	;RP0=1, select bank1
  4965  04AD  1303               	bcf	3,6	;RP1=0, select bank1
  4966  04AE  1FAA               	btfss	(___fldiv@grs+3)^(0+128),7
  4967  04AF  2CB1               	goto	u2661
  4968  04B0  2CB2               	goto	u2660
  4969  04B1                     u2661:
  4970  04B1  2CB5               	goto	l2259
  4971  04B2                     u2660:
  4972  04B2                     l2257:
  4973  04B2  1283               	bcf	3,5	;RP0=0, select bank0
  4974  04B3  1303               	bcf	3,6	;RP1=0, select bank0
  4975  04B4  145C               	bsf	___fldiv@b,0
  4976  04B5                     l2259:
  4977  04B5  3001               	movlw	1
  4978  04B6  1283               	bcf	3,5	;RP0=0, select bank0
  4979  04B7  00E0               	movwf	??___fldiv
  4980  04B8                     u2675:
  4981  04B8  1003               	clrc
  4982  04B9  1683               	bsf	3,5	;RP0=1, select bank1
  4983  04BA  1303               	bcf	3,6	;RP1=0, select bank1
  4984  04BB  0DA7               	rlf	___fldiv@grs^(0+128),f
  4985  04BC  0DA8               	rlf	(___fldiv@grs+1)^(0+128),f
  4986  04BD  0DA9               	rlf	(___fldiv@grs+2)^(0+128),f
  4987  04BE  0DAA               	rlf	(___fldiv@grs+3)^(0+128),f
  4988  04BF  1283               	bcf	3,5	;RP0=0, select bank0
  4989  04C0  1303               	bcf	3,6	;RP1=0, select bank0
  4990  04C1  0BE0               	decfsz	??___fldiv,f
  4991  04C2  2CB8               	goto	u2675
  4992  04C3                     l2261:
  4993  04C3  1283               	bcf	3,5	;RP0=0, select bank0
  4994  04C4  085B               	movf	___fldiv@a+3,w
  4995  04C5  1683               	bsf	3,5	;RP0=1, select bank1
  4996  04C6  1303               	bcf	3,6	;RP1=0, select bank1
  4997  04C7  0223               	subwf	(___fldiv@rem+3)^(0+128),w
  4998  04C8  1D03               	skipz
  4999  04C9  2CE0               	goto	u2685
  5000  04CA  1283               	bcf	3,5	;RP0=0, select bank0
  5001  04CB  1303               	bcf	3,6	;RP1=0, select bank0
  5002  04CC  085A               	movf	___fldiv@a+2,w
  5003  04CD  1683               	bsf	3,5	;RP0=1, select bank1
  5004  04CE  1303               	bcf	3,6	;RP1=0, select bank1
  5005  04CF  0222               	subwf	(___fldiv@rem+2)^(0+128),w
  5006  04D0  1D03               	skipz
  5007  04D1  2CE0               	goto	u2685
  5008  04D2  1283               	bcf	3,5	;RP0=0, select bank0
  5009  04D3  1303               	bcf	3,6	;RP1=0, select bank0
  5010  04D4  0859               	movf	___fldiv@a+1,w
  5011  04D5  1683               	bsf	3,5	;RP0=1, select bank1
  5012  04D6  1303               	bcf	3,6	;RP1=0, select bank1
  5013  04D7  0221               	subwf	(___fldiv@rem+1)^(0+128),w
  5014  04D8  1D03               	skipz
  5015  04D9  2CE0               	goto	u2685
  5016  04DA  1283               	bcf	3,5	;RP0=0, select bank0
  5017  04DB  1303               	bcf	3,6	;RP1=0, select bank0
  5018  04DC  0858               	movf	___fldiv@a,w
  5019  04DD  1683               	bsf	3,5	;RP0=1, select bank1
  5020  04DE  1303               	bcf	3,6	;RP1=0, select bank1
  5021  04DF  0220               	subwf	___fldiv@rem^(0+128),w
  5022  04E0                     u2685:
  5023  04E0  1C03               	skipc
  5024  04E1  2CE3               	goto	u2681
  5025  04E2  2CE4               	goto	u2680
  5026  04E3                     u2681:
  5027  04E3  2D0D               	goto	l2267
  5028  04E4                     u2680:
  5029  04E4                     l2263:
  5030  04E4  172A               	bsf	(___fldiv@grs^(0+128)+3),6
  5031  04E5                     l2265:
  5032  04E5  1283               	bcf	3,5	;RP0=0, select bank0
  5033  04E6  1303               	bcf	3,6	;RP1=0, select bank0
  5034  04E7  0858               	movf	___fldiv@a,w
  5035  04E8  1683               	bsf	3,5	;RP0=1, select bank1
  5036  04E9  1303               	bcf	3,6	;RP1=0, select bank1
  5037  04EA  02A0               	subwf	___fldiv@rem^(0+128),f
  5038  04EB  1283               	bcf	3,5	;RP0=0, select bank0
  5039  04EC  1303               	bcf	3,6	;RP1=0, select bank0
  5040  04ED  0859               	movf	___fldiv@a+1,w
  5041  04EE  1C03               	skipc
  5042  04EF  0F59               	incfsz	___fldiv@a+1,w
  5043  04F0  2CF2               	goto	u2695
  5044  04F1  2CF5               	goto	u2696
  5045  04F2                     u2695:
  5046  04F2  1683               	bsf	3,5	;RP0=1, select bank1
  5047  04F3  1303               	bcf	3,6	;RP1=0, select bank1
  5048  04F4  02A1               	subwf	(___fldiv@rem+1)^(0+128),f
  5049  04F5                     u2696:
  5050  04F5  1283               	bcf	3,5	;RP0=0, select bank0
  5051  04F6  1303               	bcf	3,6	;RP1=0, select bank0
  5052  04F7  085A               	movf	___fldiv@a+2,w
  5053  04F8  1C03               	skipc
  5054  04F9  0F5A               	incfsz	___fldiv@a+2,w
  5055  04FA  2CFC               	goto	u2697
  5056  04FB  2CFF               	goto	u2698
  5057  04FC                     u2697:
  5058  04FC  1683               	bsf	3,5	;RP0=1, select bank1
  5059  04FD  1303               	bcf	3,6	;RP1=0, select bank1
  5060  04FE  02A2               	subwf	(___fldiv@rem+2)^(0+128),f
  5061  04FF                     u2698:
  5062  04FF  1283               	bcf	3,5	;RP0=0, select bank0
  5063  0500  1303               	bcf	3,6	;RP1=0, select bank0
  5064  0501  085B               	movf	___fldiv@a+3,w
  5065  0502  1C03               	skipc
  5066  0503  0F5B               	incfsz	___fldiv@a+3,w
  5067  0504  2D06               	goto	u2699
  5068  0505  2D09               	goto	u2690
  5069  0506                     u2699:
  5070  0506  1683               	bsf	3,5	;RP0=1, select bank1
  5071  0507  1303               	bcf	3,6	;RP1=0, select bank1
  5072  0508  02A3               	subwf	(___fldiv@rem+3)^(0+128),f
  5073  0509                     u2690:
  5074  0509  1283               	bcf	3,5	;RP0=0, select bank0
  5075  050A  1303               	bcf	3,6	;RP1=0, select bank0
  5076  050B  1683               	bsf	3,5	;RP0=1, select bank1
  5077  050C  1303               	bcf	3,6	;RP1=0, select bank1
  5078  050D                     l2267:
  5079  050D  3001               	movlw	1
  5080  050E  1283               	bcf	3,5	;RP0=0, select bank0
  5081  050F  1303               	bcf	3,6	;RP1=0, select bank0
  5082  0510  00E0               	movwf	??___fldiv
  5083  0511  0860               	movf	??___fldiv,w
  5084  0512  1683               	bsf	3,5	;RP0=1, select bank1
  5085  0513  1303               	bcf	3,6	;RP1=0, select bank1
  5086  0514  07AC               	addwf	___fldiv@aexp^(0+128),f
  5087  0515                     l2269:
  5088  0515  301A               	movlw	26
  5089  0516  022C               	subwf	___fldiv@aexp^(0+128),w
  5090  0517  1C03               	skipc
  5091  0518  2D1A               	goto	u2701
  5092  0519  2D1B               	goto	u2700
  5093  051A                     u2701:
  5094  051A  2C8F               	goto	l2251
  5095  051B                     u2700:
  5096  051B                     l2271:
  5097  051B  0823               	movf	(___fldiv@rem+3)^(0+128),w
  5098  051C  0422               	iorwf	(___fldiv@rem+2)^(0+128),w
  5099  051D  0421               	iorwf	(___fldiv@rem+1)^(0+128),w
  5100  051E  0420               	iorwf	___fldiv@rem^(0+128),w
  5101  051F  1903               	skipnz
  5102  0520  2D22               	goto	u2711
  5103  0521  2D23               	goto	u2710
  5104  0522                     u2711:
  5105  0522  2D4D               	goto	l2285
  5106  0523                     u2710:
  5107  0523                     l2273:
  5108  0523  1427               	bsf	___fldiv@grs^(0+128),0
  5109  0524  2D4D               	goto	l2285
  5110  0525                     l2275:
  5111  0525  3001               	movlw	1
  5112  0526  00E0               	movwf	??___fldiv
  5113  0527                     u2725:
  5114  0527  1003               	clrc
  5115  0528  0DDC               	rlf	___fldiv@b,f
  5116  0529  0DDD               	rlf	___fldiv@b+1,f
  5117  052A  0DDE               	rlf	___fldiv@b+2,f
  5118  052B  0DDF               	rlf	___fldiv@b+3,f
  5119  052C  0BE0               	decfsz	??___fldiv,f
  5120  052D  2D27               	goto	u2725
  5121  052E                     l2277:
  5122  052E  1683               	bsf	3,5	;RP0=1, select bank1
  5123  052F  1303               	bcf	3,6	;RP1=0, select bank1
  5124  0530  1FAA               	btfss	(___fldiv@grs+3)^(0+128),7
  5125  0531  2D33               	goto	u2731
  5126  0532  2D34               	goto	u2730
  5127  0533                     u2731:
  5128  0533  2D37               	goto	l2281
  5129  0534                     u2730:
  5130  0534                     l2279:
  5131  0534  1283               	bcf	3,5	;RP0=0, select bank0
  5132  0535  1303               	bcf	3,6	;RP1=0, select bank0
  5133  0536  145C               	bsf	___fldiv@b,0
  5134  0537                     l2281:
  5135  0537  3001               	movlw	1
  5136  0538  1283               	bcf	3,5	;RP0=0, select bank0
  5137  0539  00E0               	movwf	??___fldiv
  5138  053A                     u2745:
  5139  053A  1003               	clrc
  5140  053B  1683               	bsf	3,5	;RP0=1, select bank1
  5141  053C  1303               	bcf	3,6	;RP1=0, select bank1
  5142  053D  0DA7               	rlf	___fldiv@grs^(0+128),f
  5143  053E  0DA8               	rlf	(___fldiv@grs+1)^(0+128),f
  5144  053F  0DA9               	rlf	(___fldiv@grs+2)^(0+128),f
  5145  0540  0DAA               	rlf	(___fldiv@grs+3)^(0+128),f
  5146  0541  1283               	bcf	3,5	;RP0=0, select bank0
  5147  0542  1303               	bcf	3,6	;RP1=0, select bank0
  5148  0543  0BE0               	decfsz	??___fldiv,f
  5149  0544  2D3A               	goto	u2745
  5150  0545                     l2283:
  5151  0545  30FF               	movlw	255
  5152  0546  1683               	bsf	3,5	;RP0=1, select bank1
  5153  0547  1303               	bcf	3,6	;RP1=0, select bank1
  5154  0548  07A5               	addwf	___fldiv@new_exp^(0+128),f
  5155  0549  1803               	skipnc
  5156  054A  0AA6               	incf	(___fldiv@new_exp+1)^(0+128),f
  5157  054B  30FF               	movlw	255
  5158  054C  07A6               	addwf	(___fldiv@new_exp+1)^(0+128),f
  5159  054D                     l2285:
  5160  054D  1283               	bcf	3,5	;RP0=0, select bank0
  5161  054E  1303               	bcf	3,6	;RP1=0, select bank0
  5162  054F  1FDE               	btfss	___fldiv@b+2,7
  5163  0550  2D52               	goto	u2751
  5164  0551  2D53               	goto	u2750
  5165  0552                     u2751:
  5166  0552  2D25               	goto	l2275
  5167  0553                     u2750:
  5168  0553                     l2287:
  5169  0553  1683               	bsf	3,5	;RP0=1, select bank1
  5170  0554  1303               	bcf	3,6	;RP1=0, select bank1
  5171  0555  01AC               	clrf	___fldiv@aexp^(0+128)
  5172  0556                     l2289:
  5173  0556  1FAA               	btfss	(___fldiv@grs+3)^(0+128),7
  5174  0557  2D59               	goto	u2761
  5175  0558  2D5A               	goto	u2760
  5176  0559                     u2761:
  5177  0559  2D86               	goto	l2297
  5178  055A                     u2760:
  5179  055A                     l2291:
  5180  055A  30FF               	movlw	255
  5181  055B  0527               	andwf	___fldiv@grs^(0+128),w
  5182  055C  1283               	bcf	3,5	;RP0=0, select bank0
  5183  055D  1303               	bcf	3,6	;RP1=0, select bank0
  5184  055E  00E0               	movwf	??___fldiv
  5185  055F  30FF               	movlw	255
  5186  0560  1683               	bsf	3,5	;RP0=1, select bank1
  5187  0561  1303               	bcf	3,6	;RP1=0, select bank1
  5188  0562  0528               	andwf	(___fldiv@grs+1)^(0+128),w
  5189  0563  1283               	bcf	3,5	;RP0=0, select bank0
  5190  0564  1303               	bcf	3,6	;RP1=0, select bank0
  5191  0565  00E1               	movwf	??___fldiv+1
  5192  0566  30FF               	movlw	255
  5193  0567  1683               	bsf	3,5	;RP0=1, select bank1
  5194  0568  1303               	bcf	3,6	;RP1=0, select bank1
  5195  0569  0529               	andwf	(___fldiv@grs+2)^(0+128),w
  5196  056A  1283               	bcf	3,5	;RP0=0, select bank0
  5197  056B  1303               	bcf	3,6	;RP1=0, select bank0
  5198  056C  00E2               	movwf	??___fldiv+2
  5199  056D  307F               	movlw	127
  5200  056E  1683               	bsf	3,5	;RP0=1, select bank1
  5201  056F  1303               	bcf	3,6	;RP1=0, select bank1
  5202  0570  052A               	andwf	(___fldiv@grs+3)^(0+128),w
  5203  0571  1283               	bcf	3,5	;RP0=0, select bank0
  5204  0572  1303               	bcf	3,6	;RP1=0, select bank0
  5205  0573  00E3               	movwf	??___fldiv+3
  5206  0574  0863               	movf	??___fldiv+3,w
  5207  0575  0462               	iorwf	??___fldiv+2,w
  5208  0576  0461               	iorwf	??___fldiv+1,w
  5209  0577  0460               	iorwf	??___fldiv,w
  5210  0578  1903               	skipnz
  5211  0579  2D7B               	goto	u2771
  5212  057A  2D7C               	goto	u2770
  5213  057B                     u2771:
  5214  057B  2D81               	goto	l660
  5215  057C                     u2770:
  5216  057C                     l2293:
  5217  057C  1683               	bsf	3,5	;RP0=1, select bank1
  5218  057D  1303               	bcf	3,6	;RP1=0, select bank1
  5219  057E  01AC               	clrf	___fldiv@aexp^(0+128)
  5220  057F  0AAC               	incf	___fldiv@aexp^(0+128),f
  5221  0580  2D86               	goto	l2297
  5222  0581                     l660:
  5223  0581  1C5C               	btfss	___fldiv@b,0
  5224  0582  2D84               	goto	u2781
  5225  0583  2D85               	goto	u2780
  5226  0584                     u2781:
  5227  0584  2D86               	goto	l2297
  5228  0585                     u2780:
  5229  0585  2D7C               	goto	l2293
  5230  0586                     l2297:
  5231  0586  1683               	bsf	3,5	;RP0=1, select bank1
  5232  0587  1303               	bcf	3,6	;RP1=0, select bank1
  5233  0588  082C               	movf	___fldiv@aexp^(0+128),w
  5234  0589  1903               	btfsc	3,2
  5235  058A  2D8C               	goto	u2791
  5236  058B  2D8D               	goto	u2790
  5237  058C                     u2791:
  5238  058C  2DC2               	goto	l2307
  5239  058D                     u2790:
  5240  058D                     l2299:
  5241  058D  3001               	movlw	1
  5242  058E  1283               	bcf	3,5	;RP0=0, select bank0
  5243  058F  1303               	bcf	3,6	;RP1=0, select bank0
  5244  0590  07DC               	addwf	___fldiv@b,f
  5245  0591  3000               	movlw	0
  5246  0592  1803               	skipnc
  5247  0593  3001               	movlw	1
  5248  0594  07DD               	addwf	___fldiv@b+1,f
  5249  0595  3000               	movlw	0
  5250  0596  1803               	skipnc
  5251  0597  3001               	movlw	1
  5252  0598  07DE               	addwf	___fldiv@b+2,f
  5253  0599  3000               	movlw	0
  5254  059A  1803               	skipnc
  5255  059B  3001               	movlw	1
  5256  059C  07DF               	addwf	___fldiv@b+3,f
  5257  059D                     l2301:
  5258  059D  1C5F               	btfss	___fldiv@b+3,0
  5259  059E  2DA0               	goto	u2801
  5260  059F  2DA1               	goto	u2800
  5261  05A0                     u2801:
  5262  05A0  2DC2               	goto	l2307
  5263  05A1                     u2800:
  5264  05A1                     l2303:
  5265  05A1  085C               	movf	___fldiv@b,w
  5266  05A2  00E0               	movwf	??___fldiv
  5267  05A3  085D               	movf	___fldiv@b+1,w
  5268  05A4  00E1               	movwf	??___fldiv+1
  5269  05A5  085E               	movf	___fldiv@b+2,w
  5270  05A6  00E2               	movwf	??___fldiv+2
  5271  05A7  085F               	movf	___fldiv@b+3,w
  5272  05A8  00E3               	movwf	??___fldiv+3
  5273  05A9  3001               	movlw	1
  5274  05AA  00E4               	movwf	??___fldiv+4
  5275  05AB                     u2815:
  5276  05AB  0D63               	rlf	??___fldiv+3,w
  5277  05AC  0CE3               	rrf	??___fldiv+3,f
  5278  05AD  0CE2               	rrf	??___fldiv+2,f
  5279  05AE  0CE1               	rrf	??___fldiv+1,f
  5280  05AF  0CE0               	rrf	??___fldiv,f
  5281  05B0                     u2810:
  5282  05B0  0BE4               	decfsz	??___fldiv+4,f
  5283  05B1  2DAB               	goto	u2815
  5284  05B2  0863               	movf	??___fldiv+3,w
  5285  05B3  00DF               	movwf	___fldiv@b+3
  5286  05B4  0862               	movf	??___fldiv+2,w
  5287  05B5  00DE               	movwf	___fldiv@b+2
  5288  05B6  0861               	movf	??___fldiv+1,w
  5289  05B7  00DD               	movwf	___fldiv@b+1
  5290  05B8  0860               	movf	??___fldiv,w
  5291  05B9  00DC               	movwf	___fldiv@b
  5292  05BA                     l2305:
  5293  05BA  3001               	movlw	1
  5294  05BB  1683               	bsf	3,5	;RP0=1, select bank1
  5295  05BC  1303               	bcf	3,6	;RP1=0, select bank1
  5296  05BD  07A5               	addwf	___fldiv@new_exp^(0+128),f
  5297  05BE  1803               	skipnc
  5298  05BF  0AA6               	incf	(___fldiv@new_exp+1)^(0+128),f
  5299  05C0  3000               	movlw	0
  5300  05C1  07A6               	addwf	(___fldiv@new_exp+1)^(0+128),f
  5301  05C2                     l2307:
  5302  05C2  1683               	bsf	3,5	;RP0=1, select bank1
  5303  05C3  1303               	bcf	3,6	;RP1=0, select bank1
  5304  05C4  0826               	movf	(___fldiv@new_exp+1)^(0+128),w
  5305  05C5  3A80               	xorlw	128
  5306  05C6  00FF               	movwf	btemp+1
  5307  05C7  3080               	movlw	128
  5308  05C8  027F               	subwf	btemp+1,w
  5309  05C9  1D03               	skipz
  5310  05CA  2DCD               	goto	u2825
  5311  05CB  30FF               	movlw	255
  5312  05CC  0225               	subwf	___fldiv@new_exp^(0+128),w
  5313  05CD                     u2825:
  5314  05CD  1C03               	skipc
  5315  05CE  2DD0               	goto	u2821
  5316  05CF  2DD1               	goto	u2820
  5317  05D0                     u2821:
  5318  05D0  2DE1               	goto	l2311
  5319  05D1                     u2820:
  5320  05D1                     l2309:
  5321  05D1  30FF               	movlw	255
  5322  05D2  1683               	bsf	3,5	;RP0=1, select bank1
  5323  05D3  1303               	bcf	3,6	;RP1=0, select bank1
  5324  05D4  00A5               	movwf	___fldiv@new_exp^(0+128)
  5325  05D5  3000               	movlw	0
  5326  05D6  00A6               	movwf	(___fldiv@new_exp^(0+128)+1)
  5327  05D7  3000               	movlw	0
  5328  05D8  1283               	bcf	3,5	;RP0=0, select bank0
  5329  05D9  1303               	bcf	3,6	;RP1=0, select bank0
  5330  05DA  00DF               	movwf	___fldiv@b+3
  5331  05DB  3000               	movlw	0
  5332  05DC  00DE               	movwf	___fldiv@b+2
  5333  05DD  3000               	movlw	0
  5334  05DE  00DD               	movwf	___fldiv@b+1
  5335  05DF  3000               	movlw	0
  5336  05E0  00DC               	movwf	___fldiv@b
  5337  05E1                     l2311:
  5338  05E1  1683               	bsf	3,5	;RP0=1, select bank1
  5339  05E2  1303               	bcf	3,6	;RP1=0, select bank1
  5340  05E3  0826               	movf	(___fldiv@new_exp+1)^(0+128),w
  5341  05E4  3A80               	xorlw	128
  5342  05E5  00FF               	movwf	btemp+1
  5343  05E6  3080               	movlw	128
  5344  05E7  027F               	subwf	btemp+1,w
  5345  05E8  1D03               	skipz
  5346  05E9  2DEC               	goto	u2835
  5347  05EA  3001               	movlw	1
  5348  05EB  0225               	subwf	___fldiv@new_exp^(0+128),w
  5349  05EC                     u2835:
  5350  05EC  1803               	skipnc
  5351  05ED  2DEF               	goto	u2831
  5352  05EE  2DF0               	goto	u2830
  5353  05EF                     u2831:
  5354  05EF  2E01               	goto	l666
  5355  05F0                     u2830:
  5356  05F0                     l2313:
  5357  05F0  1683               	bsf	3,5	;RP0=1, select bank1
  5358  05F1  1303               	bcf	3,6	;RP1=0, select bank1
  5359  05F2  01A5               	clrf	___fldiv@new_exp^(0+128)
  5360  05F3  01A6               	clrf	(___fldiv@new_exp+1)^(0+128)
  5361  05F4                     l2315:
  5362  05F4  3000               	movlw	0
  5363  05F5  1283               	bcf	3,5	;RP0=0, select bank0
  5364  05F6  1303               	bcf	3,6	;RP1=0, select bank0
  5365  05F7  00DF               	movwf	___fldiv@b+3
  5366  05F8  3000               	movlw	0
  5367  05F9  00DE               	movwf	___fldiv@b+2
  5368  05FA  3000               	movlw	0
  5369  05FB  00DD               	movwf	___fldiv@b+1
  5370  05FC  3000               	movlw	0
  5371  05FD  00DC               	movwf	___fldiv@b
  5372  05FE                     l2317:
  5373  05FE  1683               	bsf	3,5	;RP0=1, select bank1
  5374  05FF  1303               	bcf	3,6	;RP1=0, select bank1
  5375  0600  01A4               	clrf	___fldiv@sign^(0+128)
  5376  0601                     l666:
  5377  0601  1683               	bsf	3,5	;RP0=1, select bank1
  5378  0602  1303               	bcf	3,6	;RP1=0, select bank1
  5379  0603  0825               	movf	___fldiv@new_exp^(0+128),w
  5380  0604  1283               	bcf	3,5	;RP0=0, select bank0
  5381  0605  1303               	bcf	3,6	;RP1=0, select bank0
  5382  0606  00E0               	movwf	??___fldiv
  5383  0607  0860               	movf	??___fldiv,w
  5384  0608  1683               	bsf	3,5	;RP0=1, select bank1
  5385  0609  1303               	bcf	3,6	;RP1=0, select bank1
  5386  060A  00AB               	movwf	___fldiv@bexp^(0+128)
  5387  060B                     l2319:
  5388  060B  1C2B               	btfss	___fldiv@bexp^(0+128),0
  5389  060C  2E0E               	goto	u2841
  5390  060D  2E0F               	goto	u2840
  5391  060E                     u2841:
  5392  060E  2E13               	goto	l2323
  5393  060F                     u2840:
  5394  060F                     l2321:
  5395  060F  1283               	bcf	3,5	;RP0=0, select bank0
  5396  0610  1303               	bcf	3,6	;RP1=0, select bank0
  5397  0611  17DE               	bsf	___fldiv@b+2,7
  5398  0612  2E19               	goto	l668
  5399  0613                     l2323:
  5400  0613  307F               	movlw	127
  5401  0614  1283               	bcf	3,5	;RP0=0, select bank0
  5402  0615  1303               	bcf	3,6	;RP1=0, select bank0
  5403  0616  00E0               	movwf	??___fldiv
  5404  0617  0860               	movf	??___fldiv,w
  5405  0618  05DE               	andwf	___fldiv@b+2,f
  5406  0619                     l668:
  5407  0619  1683               	bsf	3,5	;RP0=1, select bank1
  5408  061A  1303               	bcf	3,6	;RP1=0, select bank1
  5409  061B  082B               	movf	___fldiv@bexp^(0+128),w
  5410  061C  1283               	bcf	3,5	;RP0=0, select bank0
  5411  061D  1303               	bcf	3,6	;RP1=0, select bank0
  5412  061E  00E0               	movwf	??___fldiv
  5413  061F  1003               	clrc
  5414  0620  0C60               	rrf	??___fldiv,w
  5415  0621  00E1               	movwf	??___fldiv+1
  5416  0622  0861               	movf	??___fldiv+1,w
  5417  0623  00DF               	movwf	___fldiv@b+3
  5418  0624  1683               	bsf	3,5	;RP0=1, select bank1
  5419  0625  1303               	bcf	3,6	;RP1=0, select bank1
  5420  0626  0824               	movf	___fldiv@sign^(0+128),w
  5421  0627  1283               	bcf	3,5	;RP0=0, select bank0
  5422  0628  1303               	bcf	3,6	;RP1=0, select bank0
  5423  0629  00E0               	movwf	??___fldiv
  5424  062A  0860               	movf	??___fldiv,w
  5425  062B  04DF               	iorwf	___fldiv@b+3,f
  5426  062C  2C28               	goto	l2231
  5427  062D                     l646:
  5428  062D  0008               	return
  5429  062E                     __end_of___fldiv:
  5430                           
  5431                           	psect	text10
  5432  09A4                     __ptext10:	
  5433 ;; *************** function ___awdiv *****************
  5434 ;; Defined at:
  5435 ;;		line 5 in file "C:\Program Files\Microchip\xc8\v2.36\pic\sources\c90\common\awdiv.c"
  5436 ;; Parameters:    Size  Location     Type
  5437 ;;  divisor         2   22[BANK1 ] int 
  5438 ;;  dividend        2   24[BANK1 ] int 
  5439 ;; Auto vars:     Size  Location     Type
  5440 ;;  quotient        2   28[BANK1 ] int 
  5441 ;;  sign            1   27[BANK1 ] unsigned char 
  5442 ;;  counter         1   26[BANK1 ] unsigned char 
  5443 ;; Return value:  Size  Location     Type
  5444 ;;                  2   22[BANK1 ] int 
  5445 ;; Registers used:
  5446 ;;		wreg, status,2, status,0
  5447 ;; Tracked objects:
  5448 ;;		On entry : 0/0
  5449 ;;		On exit  : 0/0
  5450 ;;		Unchanged: 0/0
  5451 ;; Data sizes:     COMMON   BANK0   BANK1   BANK3   BANK2
  5452 ;;      Params:         0       0       4       0       0
  5453 ;;      Locals:         0       0       4       0       0
  5454 ;;      Temps:          0       1       0       0       0
  5455 ;;      Totals:         0       1       8       0       0
  5456 ;;Total ram usage:        9 bytes
  5457 ;; Hardware stack levels used: 1
  5458 ;; Hardware stack levels required when called: 4
  5459 ;; This function calls:
  5460 ;;		Nothing
  5461 ;; This function is called by:
  5462 ;;		_Lcd_Padrao
  5463 ;; This function uses a non-reentrant model
  5464 ;;
  5465                           
  5466  09A4                     ___awdiv:	
  5467                           ;psect for function ___awdiv
  5468                           
  5469  09A4                     l2107:	
  5470                           ;incstack = 0
  5471                           ; Regs used in ___awdiv: [wreg+status,2+status,0]
  5472                           
  5473  09A4  1683               	bsf	3,5	;RP0=1, select bank1
  5474  09A5  1303               	bcf	3,6	;RP1=0, select bank1
  5475  09A6  01BB               	clrf	___awdiv@sign^(0+128)
  5476  09A7                     l2109:
  5477  09A7  1FB7               	btfss	(___awdiv@divisor+1)^(0+128),7
  5478  09A8  29AA               	goto	u2351
  5479  09A9  29AB               	goto	u2350
  5480  09AA                     u2351:
  5481  09AA  29B2               	goto	l2115
  5482  09AB                     u2350:
  5483  09AB                     l2111:
  5484  09AB  09B6               	comf	___awdiv@divisor^(0+128),f
  5485  09AC  09B7               	comf	(___awdiv@divisor+1)^(0+128),f
  5486  09AD  0AB6               	incf	___awdiv@divisor^(0+128),f
  5487  09AE  1903               	skipnz
  5488  09AF  0AB7               	incf	(___awdiv@divisor+1)^(0+128),f
  5489  09B0                     l2113:
  5490  09B0  01BB               	clrf	___awdiv@sign^(0+128)
  5491  09B1  0ABB               	incf	___awdiv@sign^(0+128),f
  5492  09B2                     l2115:
  5493  09B2  1FB9               	btfss	(___awdiv@dividend+1)^(0+128),7
  5494  09B3  29B5               	goto	u2361
  5495  09B4  29B6               	goto	u2360
  5496  09B5                     u2361:
  5497  09B5  29C3               	goto	l2121
  5498  09B6                     u2360:
  5499  09B6                     l2117:
  5500  09B6  09B8               	comf	___awdiv@dividend^(0+128),f
  5501  09B7  09B9               	comf	(___awdiv@dividend+1)^(0+128),f
  5502  09B8  0AB8               	incf	___awdiv@dividend^(0+128),f
  5503  09B9  1903               	skipnz
  5504  09BA  0AB9               	incf	(___awdiv@dividend+1)^(0+128),f
  5505  09BB                     l2119:
  5506  09BB  3001               	movlw	1
  5507  09BC  1283               	bcf	3,5	;RP0=0, select bank0
  5508  09BD  1303               	bcf	3,6	;RP1=0, select bank0
  5509  09BE  00E7               	movwf	??___awdiv
  5510  09BF  0867               	movf	??___awdiv,w
  5511  09C0  1683               	bsf	3,5	;RP0=1, select bank1
  5512  09C1  1303               	bcf	3,6	;RP1=0, select bank1
  5513  09C2  06BB               	xorwf	___awdiv@sign^(0+128),f
  5514  09C3                     l2121:
  5515  09C3  01BC               	clrf	___awdiv@quotient^(0+128)
  5516  09C4  01BD               	clrf	(___awdiv@quotient+1)^(0+128)
  5517  09C5                     l2123:
  5518  09C5  0836               	movf	___awdiv@divisor^(0+128),w
  5519  09C6  0437               	iorwf	(___awdiv@divisor+1)^(0+128),w
  5520  09C7  1903               	btfsc	3,2
  5521  09C8  29CA               	goto	u2371
  5522  09C9  29CB               	goto	u2370
  5523  09CA                     u2371:
  5524  09CA  2A06               	goto	l2143
  5525  09CB                     u2370:
  5526  09CB                     l2125:
  5527  09CB  01BA               	clrf	___awdiv@counter^(0+128)
  5528  09CC  0ABA               	incf	___awdiv@counter^(0+128),f
  5529  09CD  29DD               	goto	l2131
  5530  09CE                     l2127:
  5531  09CE  3001               	movlw	1
  5532  09CF                     u2385:
  5533  09CF  1003               	clrc
  5534  09D0  0DB6               	rlf	___awdiv@divisor^(0+128),f
  5535  09D1  0DB7               	rlf	(___awdiv@divisor+1)^(0+128),f
  5536  09D2  3EFF               	addlw	-1
  5537  09D3  1D03               	skipz
  5538  09D4  29CF               	goto	u2385
  5539  09D5                     l2129:
  5540  09D5  3001               	movlw	1
  5541  09D6  1283               	bcf	3,5	;RP0=0, select bank0
  5542  09D7  1303               	bcf	3,6	;RP1=0, select bank0
  5543  09D8  00E7               	movwf	??___awdiv
  5544  09D9  0867               	movf	??___awdiv,w
  5545  09DA  1683               	bsf	3,5	;RP0=1, select bank1
  5546  09DB  1303               	bcf	3,6	;RP1=0, select bank1
  5547  09DC  07BA               	addwf	___awdiv@counter^(0+128),f
  5548  09DD                     l2131:
  5549  09DD  1FB7               	btfss	(___awdiv@divisor+1)^(0+128),7
  5550  09DE  29E0               	goto	u2391
  5551  09DF  29E1               	goto	u2390
  5552  09E0                     u2391:
  5553  09E0  29CE               	goto	l2127
  5554  09E1                     u2390:
  5555  09E1                     l2133:
  5556  09E1  3001               	movlw	1
  5557  09E2                     u2405:
  5558  09E2  1003               	clrc
  5559  09E3  0DBC               	rlf	___awdiv@quotient^(0+128),f
  5560  09E4  0DBD               	rlf	(___awdiv@quotient+1)^(0+128),f
  5561  09E5  3EFF               	addlw	-1
  5562  09E6  1D03               	skipz
  5563  09E7  29E2               	goto	u2405
  5564  09E8  0837               	movf	(___awdiv@divisor+1)^(0+128),w
  5565  09E9  0239               	subwf	(___awdiv@dividend+1)^(0+128),w
  5566  09EA  1D03               	skipz
  5567  09EB  29EE               	goto	u2415
  5568  09EC  0836               	movf	___awdiv@divisor^(0+128),w
  5569  09ED  0238               	subwf	___awdiv@dividend^(0+128),w
  5570  09EE                     u2415:
  5571  09EE  1C03               	skipc
  5572  09EF  29F1               	goto	u2411
  5573  09F0  29F2               	goto	u2410
  5574  09F1                     u2411:
  5575  09F1  29F9               	goto	l2139
  5576  09F2                     u2410:
  5577  09F2                     l2135:
  5578  09F2  0836               	movf	___awdiv@divisor^(0+128),w
  5579  09F3  02B8               	subwf	___awdiv@dividend^(0+128),f
  5580  09F4  0837               	movf	(___awdiv@divisor+1)^(0+128),w
  5581  09F5  1C03               	skipc
  5582  09F6  03B9               	decf	(___awdiv@dividend+1)^(0+128),f
  5583  09F7  02B9               	subwf	(___awdiv@dividend+1)^(0+128),f
  5584  09F8                     l2137:
  5585  09F8  143C               	bsf	___awdiv@quotient^(0+128),0
  5586  09F9                     l2139:
  5587  09F9  3001               	movlw	1
  5588  09FA                     u2425:
  5589  09FA  1003               	clrc
  5590  09FB  0CB7               	rrf	(___awdiv@divisor+1)^(0+128),f
  5591  09FC  0CB6               	rrf	___awdiv@divisor^(0+128),f
  5592  09FD  3EFF               	addlw	-1
  5593  09FE  1D03               	skipz
  5594  09FF  29FA               	goto	u2425
  5595  0A00                     l2141:
  5596  0A00  3001               	movlw	1
  5597  0A01  02BA               	subwf	___awdiv@counter^(0+128),f
  5598  0A02  1D03               	btfss	3,2
  5599  0A03  2A05               	goto	u2431
  5600  0A04  2A06               	goto	u2430
  5601  0A05                     u2431:
  5602  0A05  29E1               	goto	l2133
  5603  0A06                     u2430:
  5604  0A06                     l2143:
  5605  0A06  083B               	movf	___awdiv@sign^(0+128),w
  5606  0A07  1903               	btfsc	3,2
  5607  0A08  2A0A               	goto	u2441
  5608  0A09  2A0B               	goto	u2440
  5609  0A0A                     u2441:
  5610  0A0A  2A10               	goto	l2147
  5611  0A0B                     u2440:
  5612  0A0B                     l2145:
  5613  0A0B  09BC               	comf	___awdiv@quotient^(0+128),f
  5614  0A0C  09BD               	comf	(___awdiv@quotient+1)^(0+128),f
  5615  0A0D  0ABC               	incf	___awdiv@quotient^(0+128),f
  5616  0A0E  1903               	skipnz
  5617  0A0F  0ABD               	incf	(___awdiv@quotient+1)^(0+128),f
  5618  0A10                     l2147:
  5619  0A10  083D               	movf	(___awdiv@quotient+1)^(0+128),w
  5620  0A11  00B7               	movwf	(?___awdiv+1)^(0+128)
  5621  0A12  083C               	movf	___awdiv@quotient^(0+128),w
  5622  0A13  00B6               	movwf	?___awdiv^(0+128)
  5623  0A14                     l448:
  5624  0A14  0008               	return
  5625  0A15                     __end_of___awdiv:
  5626                           
  5627                           	psect	text11
  5628  1751                     __ptext11:	
  5629 ;; *************** function _PesoEstoque *****************
  5630 ;; Defined at:
  5631 ;;		line 78 in file "newmain.c"
  5632 ;; Parameters:    Size  Location     Type
  5633 ;;		None
  5634 ;; Auto vars:     Size  Location     Type
  5635 ;;  peso            4   26[BANK0 ] float 
  5636 ;; Return value:  Size  Location     Type
  5637 ;;                  4   18[BANK0 ] float 
  5638 ;; Registers used:
  5639 ;;		wreg, status,2, status,0, pclath, cstack
  5640 ;; Tracked objects:
  5641 ;;		On entry : 0/0
  5642 ;;		On exit  : 0/0
  5643 ;;		Unchanged: 0/0
  5644 ;; Data sizes:     COMMON   BANK0   BANK1   BANK3   BANK2
  5645 ;;      Params:         0       4       0       0       0
  5646 ;;      Locals:         0       4       0       0       0
  5647 ;;      Temps:          0       4       0       0       0
  5648 ;;      Totals:         0      12       0       0       0
  5649 ;;Total ram usage:       12 bytes
  5650 ;; Hardware stack levels used: 1
  5651 ;; Hardware stack levels required when called: 5
  5652 ;; This function calls:
  5653 ;;		___xxtofl
  5654 ;; This function is called by:
  5655 ;;		_Lcd_Padrao
  5656 ;;		_main
  5657 ;; This function uses a non-reentrant model
  5658 ;;
  5659                           
  5660  1751                     _PesoEstoque:	
  5661                           ;psect for function _PesoEstoque
  5662                           
  5663  1751                     l2009:	
  5664                           ;incstack = 0
  5665                           ; Regs used in _PesoEstoque: [wreg+status,2+status,0+pclath+cstack]
  5666                           
  5667                           
  5668                           ;newmain.c: 80:     float peso;;newmain.c: 81:     _delay((unsigned long)((10)*(4000000/
      +                          4000000.0)));
  5669  1751  3002               	movlw	2
  5670  1752  1283               	bcf	3,5	;RP0=0, select bank0
  5671  1753  1303               	bcf	3,6	;RP1=0, select bank0
  5672  1754  00B6               	movwf	??_PesoEstoque
  5673  1755                     u4017:
  5674  1755  0BB6               	decfsz	??_PesoEstoque,f
  5675  1756  2F55               	goto	u4017
  5676  1757  0000               	nop
  5677  1758                     l2011:
  5678                           
  5679                           ;newmain.c: 82:     ADCON0bits.CHS0 = 0;
  5680  1758  1283               	bcf	3,5	;RP0=0, select bank0
  5681  1759  1303               	bcf	3,6	;RP1=0, select bank0
  5682  175A  119F               	bcf	31,3	;volatile
  5683                           
  5684                           ;newmain.c: 83:     _delay((unsigned long)((10)*(4000000/4000000.0)));
  5685  175B  3002               	movlw	2
  5686  175C  1283               	bcf	3,5	;RP0=0, select bank0
  5687  175D  1303               	bcf	3,6	;RP1=0, select bank0
  5688  175E  00B6               	movwf	??_PesoEstoque
  5689  175F                     u4027:
  5690  175F  0BB6               	decfsz	??_PesoEstoque,f
  5691  1760  2F5F               	goto	u4027
  5692  1761  0000               	nop
  5693  1762                     l2013:
  5694                           
  5695                           ;newmain.c: 84:     ADCON0bits.CHS1 = 0;
  5696  1762  1283               	bcf	3,5	;RP0=0, select bank0
  5697  1763  1303               	bcf	3,6	;RP1=0, select bank0
  5698  1764  121F               	bcf	31,4	;volatile
  5699                           
  5700                           ;newmain.c: 85:     _delay((unsigned long)((10)*(4000000/4000000.0)));
  5701  1765  3002               	movlw	2
  5702  1766  1283               	bcf	3,5	;RP0=0, select bank0
  5703  1767  1303               	bcf	3,6	;RP1=0, select bank0
  5704  1768  00B6               	movwf	??_PesoEstoque
  5705  1769                     u4037:
  5706  1769  0BB6               	decfsz	??_PesoEstoque,f
  5707  176A  2F69               	goto	u4037
  5708  176B  0000               	nop
  5709  176C                     l2015:
  5710                           
  5711                           ;newmain.c: 86:     ADCON0bits.CHS2 = 0;
  5712  176C  1283               	bcf	3,5	;RP0=0, select bank0
  5713  176D  1303               	bcf	3,6	;RP1=0, select bank0
  5714  176E  129F               	bcf	31,5	;volatile
  5715                           
  5716                           ;newmain.c: 87:     _delay((unsigned long)((10)*(4000000/4000000.0)));
  5717  176F  3002               	movlw	2
  5718  1770  1283               	bcf	3,5	;RP0=0, select bank0
  5719  1771  1303               	bcf	3,6	;RP1=0, select bank0
  5720  1772  00B6               	movwf	??_PesoEstoque
  5721  1773                     u4047:
  5722  1773  0BB6               	decfsz	??_PesoEstoque,f
  5723  1774  2F73               	goto	u4047
  5724  1775  0000               	nop
  5725  1776                     l2017:
  5726                           
  5727                           ;newmain.c: 88:     ADCON0bits.GO = 1;
  5728  1776  1283               	bcf	3,5	;RP0=0, select bank0
  5729  1777  1303               	bcf	3,6	;RP1=0, select bank0
  5730  1778  151F               	bsf	31,2	;volatile
  5731                           
  5732                           ;newmain.c: 89:     _delay((unsigned long)((10)*(4000000/4000000.0)));
  5733  1779  3002               	movlw	2
  5734  177A  1283               	bcf	3,5	;RP0=0, select bank0
  5735  177B  1303               	bcf	3,6	;RP1=0, select bank0
  5736  177C  00B6               	movwf	??_PesoEstoque
  5737  177D                     u4057:
  5738  177D  0BB6               	decfsz	??_PesoEstoque,f
  5739  177E  2F7D               	goto	u4057
  5740  177F  0000               	nop
  5741  1780                     l2019:
  5742                           
  5743                           ;newmain.c: 90:     peso = ADRESH;
  5744  1780  1283               	bcf	3,5	;RP0=0, select bank0
  5745  1781  1303               	bcf	3,6	;RP1=0, select bank0
  5746  1782  081E               	movf	30,w	;volatile
  5747  1783  00B6               	movwf	??_PesoEstoque
  5748  1784  01B7               	clrf	??_PesoEstoque+1
  5749  1785  01B8               	clrf	??_PesoEstoque+2
  5750  1786  01B9               	clrf	??_PesoEstoque+3
  5751  1787  0839               	movf	??_PesoEstoque+3,w
  5752  1788  00A7               	movwf	___xxtofl@val+3
  5753  1789  0838               	movf	??_PesoEstoque+2,w
  5754  178A  00A6               	movwf	___xxtofl@val+2
  5755  178B  0837               	movf	??_PesoEstoque+1,w
  5756  178C  00A5               	movwf	___xxtofl@val+1
  5757  178D  0836               	movf	??_PesoEstoque,w
  5758  178E  00A4               	movwf	___xxtofl@val
  5759  178F  3000               	movlw	0
  5760  1790  120A  118A  2718  160A  118A  	fcall	___xxtofl
  5761  1795  1283               	bcf	3,5	;RP0=0, select bank0
  5762  1796  1303               	bcf	3,6	;RP1=0, select bank0
  5763  1797  0827               	movf	?___xxtofl+3,w
  5764  1798  00BD               	movwf	PesoEstoque@peso+3
  5765  1799  0826               	movf	?___xxtofl+2,w
  5766  179A  00BC               	movwf	PesoEstoque@peso+2
  5767  179B  0825               	movf	?___xxtofl+1,w
  5768  179C  00BB               	movwf	PesoEstoque@peso+1
  5769  179D  0824               	movf	?___xxtofl,w
  5770  179E  00BA               	movwf	PesoEstoque@peso
  5771  179F                     l2021:
  5772                           
  5773                           ;newmain.c: 91:     return peso;
  5774  179F  083D               	movf	PesoEstoque@peso+3,w
  5775  17A0  00B5               	movwf	?_PesoEstoque+3
  5776  17A1  083C               	movf	PesoEstoque@peso+2,w
  5777  17A2  00B4               	movwf	?_PesoEstoque+2
  5778  17A3  083B               	movf	PesoEstoque@peso+1,w
  5779  17A4  00B3               	movwf	?_PesoEstoque+1
  5780  17A5  083A               	movf	PesoEstoque@peso,w
  5781  17A6  00B2               	movwf	?_PesoEstoque
  5782  17A7                     l131:
  5783  17A7  0008               	return
  5784  17A8                     __end_of_PesoEstoque:
  5785                           
  5786                           	psect	text12
  5787  16FA                     __ptext12:	
  5788 ;; *************** function _PesoCambuca *****************
  5789 ;; Defined at:
  5790 ;;		line 93 in file "newmain.c"
  5791 ;; Parameters:    Size  Location     Type
  5792 ;;		None
  5793 ;; Auto vars:     Size  Location     Type
  5794 ;;  peso            4   26[BANK0 ] float 
  5795 ;; Return value:  Size  Location     Type
  5796 ;;                  4   18[BANK0 ] float 
  5797 ;; Registers used:
  5798 ;;		wreg, status,2, status,0, pclath, cstack
  5799 ;; Tracked objects:
  5800 ;;		On entry : 0/0
  5801 ;;		On exit  : 0/0
  5802 ;;		Unchanged: 0/0
  5803 ;; Data sizes:     COMMON   BANK0   BANK1   BANK3   BANK2
  5804 ;;      Params:         0       4       0       0       0
  5805 ;;      Locals:         0       4       0       0       0
  5806 ;;      Temps:          0       4       0       0       0
  5807 ;;      Totals:         0      12       0       0       0
  5808 ;;Total ram usage:       12 bytes
  5809 ;; Hardware stack levels used: 1
  5810 ;; Hardware stack levels required when called: 5
  5811 ;; This function calls:
  5812 ;;		___xxtofl
  5813 ;; This function is called by:
  5814 ;;		_Lcd_Padrao
  5815 ;;		_main
  5816 ;; This function uses a non-reentrant model
  5817 ;;
  5818                           
  5819  16FA                     _PesoCambuca:	
  5820                           ;psect for function _PesoCambuca
  5821                           
  5822  16FA                     l2025:	
  5823                           ;incstack = 0
  5824                           ; Regs used in _PesoCambuca: [wreg+status,2+status,0+pclath+cstack]
  5825                           
  5826                           
  5827                           ;newmain.c: 95:     float peso;;newmain.c: 96:     _delay((unsigned long)((10)*(4000000/
      +                          4000000.0)));
  5828  16FA  3002               	movlw	2
  5829  16FB  1283               	bcf	3,5	;RP0=0, select bank0
  5830  16FC  1303               	bcf	3,6	;RP1=0, select bank0
  5831  16FD  00B6               	movwf	??_PesoCambuca
  5832  16FE                     u4067:
  5833  16FE  0BB6               	decfsz	??_PesoCambuca,f
  5834  16FF  2EFE               	goto	u4067
  5835  1700  0000               	nop
  5836  1701                     l2027:
  5837                           
  5838                           ;newmain.c: 97:     ADCON0bits.CHS0 = 1;
  5839  1701  1283               	bcf	3,5	;RP0=0, select bank0
  5840  1702  1303               	bcf	3,6	;RP1=0, select bank0
  5841  1703  159F               	bsf	31,3	;volatile
  5842                           
  5843                           ;newmain.c: 98:     _delay((unsigned long)((10)*(4000000/4000000.0)));
  5844  1704  3002               	movlw	2
  5845  1705  1283               	bcf	3,5	;RP0=0, select bank0
  5846  1706  1303               	bcf	3,6	;RP1=0, select bank0
  5847  1707  00B6               	movwf	??_PesoCambuca
  5848  1708                     u4077:
  5849  1708  0BB6               	decfsz	??_PesoCambuca,f
  5850  1709  2F08               	goto	u4077
  5851  170A  0000               	nop
  5852  170B                     l2029:
  5853                           
  5854                           ;newmain.c: 99:     ADCON0bits.CHS1 = 0;
  5855  170B  1283               	bcf	3,5	;RP0=0, select bank0
  5856  170C  1303               	bcf	3,6	;RP1=0, select bank0
  5857  170D  121F               	bcf	31,4	;volatile
  5858                           
  5859                           ;newmain.c: 100:     _delay((unsigned long)((10)*(4000000/4000000.0)));
  5860  170E  3002               	movlw	2
  5861  170F  1283               	bcf	3,5	;RP0=0, select bank0
  5862  1710  1303               	bcf	3,6	;RP1=0, select bank0
  5863  1711  00B6               	movwf	??_PesoCambuca
  5864  1712                     u4087:
  5865  1712  0BB6               	decfsz	??_PesoCambuca,f
  5866  1713  2F12               	goto	u4087
  5867  1714  0000               	nop
  5868  1715                     l2031:
  5869                           
  5870                           ;newmain.c: 101:     ADCON0bits.CHS2 = 0;
  5871  1715  1283               	bcf	3,5	;RP0=0, select bank0
  5872  1716  1303               	bcf	3,6	;RP1=0, select bank0
  5873  1717  129F               	bcf	31,5	;volatile
  5874                           
  5875                           ;newmain.c: 102:     _delay((unsigned long)((10)*(4000000/4000000.0)));
  5876  1718  3002               	movlw	2
  5877  1719  1283               	bcf	3,5	;RP0=0, select bank0
  5878  171A  1303               	bcf	3,6	;RP1=0, select bank0
  5879  171B  00B6               	movwf	??_PesoCambuca
  5880  171C                     u4097:
  5881  171C  0BB6               	decfsz	??_PesoCambuca,f
  5882  171D  2F1C               	goto	u4097
  5883  171E  0000               	nop
  5884  171F                     l2033:
  5885                           
  5886                           ;newmain.c: 103:     ADCON0bits.GO = 1;
  5887  171F  1283               	bcf	3,5	;RP0=0, select bank0
  5888  1720  1303               	bcf	3,6	;RP1=0, select bank0
  5889  1721  151F               	bsf	31,2	;volatile
  5890                           
  5891                           ;newmain.c: 104:     _delay((unsigned long)((10)*(4000000/4000000.0)));
  5892  1722  3002               	movlw	2
  5893  1723  1283               	bcf	3,5	;RP0=0, select bank0
  5894  1724  1303               	bcf	3,6	;RP1=0, select bank0
  5895  1725  00B6               	movwf	??_PesoCambuca
  5896  1726                     u4107:
  5897  1726  0BB6               	decfsz	??_PesoCambuca,f
  5898  1727  2F26               	goto	u4107
  5899  1728  0000               	nop
  5900  1729                     l2035:
  5901                           
  5902                           ;newmain.c: 105:     peso = ADRESH;
  5903  1729  1283               	bcf	3,5	;RP0=0, select bank0
  5904  172A  1303               	bcf	3,6	;RP1=0, select bank0
  5905  172B  081E               	movf	30,w	;volatile
  5906  172C  00B6               	movwf	??_PesoCambuca
  5907  172D  01B7               	clrf	??_PesoCambuca+1
  5908  172E  01B8               	clrf	??_PesoCambuca+2
  5909  172F  01B9               	clrf	??_PesoCambuca+3
  5910  1730  0839               	movf	??_PesoCambuca+3,w
  5911  1731  00A7               	movwf	___xxtofl@val+3
  5912  1732  0838               	movf	??_PesoCambuca+2,w
  5913  1733  00A6               	movwf	___xxtofl@val+2
  5914  1734  0837               	movf	??_PesoCambuca+1,w
  5915  1735  00A5               	movwf	___xxtofl@val+1
  5916  1736  0836               	movf	??_PesoCambuca,w
  5917  1737  00A4               	movwf	___xxtofl@val
  5918  1738  3000               	movlw	0
  5919  1739  120A  118A  2718  160A  118A  	fcall	___xxtofl
  5920  173E  1283               	bcf	3,5	;RP0=0, select bank0
  5921  173F  1303               	bcf	3,6	;RP1=0, select bank0
  5922  1740  0827               	movf	?___xxtofl+3,w
  5923  1741  00BD               	movwf	PesoCambuca@peso+3
  5924  1742  0826               	movf	?___xxtofl+2,w
  5925  1743  00BC               	movwf	PesoCambuca@peso+2
  5926  1744  0825               	movf	?___xxtofl+1,w
  5927  1745  00BB               	movwf	PesoCambuca@peso+1
  5928  1746  0824               	movf	?___xxtofl,w
  5929  1747  00BA               	movwf	PesoCambuca@peso
  5930  1748                     l2037:
  5931                           
  5932                           ;newmain.c: 106:     return peso;
  5933  1748  083D               	movf	PesoCambuca@peso+3,w
  5934  1749  00B5               	movwf	?_PesoCambuca+3
  5935  174A  083C               	movf	PesoCambuca@peso+2,w
  5936  174B  00B4               	movwf	?_PesoCambuca+2
  5937  174C  083B               	movf	PesoCambuca@peso+1,w
  5938  174D  00B3               	movwf	?_PesoCambuca+1
  5939  174E  083A               	movf	PesoCambuca@peso,w
  5940  174F  00B2               	movwf	?_PesoCambuca
  5941  1750                     l134:
  5942  1750  0008               	return
  5943  1751                     __end_of_PesoCambuca:
  5944                           
  5945                           	psect	text13
  5946  0718                     __ptext13:	
  5947 ;; *************** function ___xxtofl *****************
  5948 ;; Defined at:
  5949 ;;		line 10 in file "C:\Program Files\Microchip\xc8\v2.36\pic\sources\c90\common\xxtofl.c"
  5950 ;; Parameters:    Size  Location     Type
  5951 ;;  sign            1    wreg     unsigned char 
  5952 ;;  val             4    4[BANK0 ] long 
  5953 ;; Auto vars:     Size  Location     Type
  5954 ;;  sign            1   12[BANK0 ] unsigned char 
  5955 ;;  arg             4   14[BANK0 ] unsigned long 
  5956 ;;  exp             1   13[BANK0 ] unsigned char 
  5957 ;; Return value:  Size  Location     Type
  5958 ;;                  4    4[BANK0 ] unsigned char 
  5959 ;; Registers used:
  5960 ;;		wreg, status,2, status,0
  5961 ;; Tracked objects:
  5962 ;;		On entry : 0/0
  5963 ;;		On exit  : 0/0
  5964 ;;		Unchanged: 0/0
  5965 ;; Data sizes:     COMMON   BANK0   BANK1   BANK3   BANK2
  5966 ;;      Params:         0       4       0       0       0
  5967 ;;      Locals:         0       6       0       0       0
  5968 ;;      Temps:          0       4       0       0       0
  5969 ;;      Totals:         0      14       0       0       0
  5970 ;;Total ram usage:       14 bytes
  5971 ;; Hardware stack levels used: 1
  5972 ;; Hardware stack levels required when called: 4
  5973 ;; This function calls:
  5974 ;;		Nothing
  5975 ;; This function is called by:
  5976 ;;		_PesoEstoque
  5977 ;;		_PesoCambuca
  5978 ;; This function uses a non-reentrant model
  5979 ;;
  5980                           
  5981  0718                     ___xxtofl:	
  5982                           ;psect for function ___xxtofl
  5983                           
  5984                           
  5985                           ;incstack = 0
  5986                           ; Regs used in ___xxtofl: [wreg+status,2+status,0]
  5987                           ;___xxtofl@sign stored from wreg
  5988  0718  1283               	bcf	3,5	;RP0=0, select bank0
  5989  0719  1303               	bcf	3,6	;RP1=0, select bank0
  5990  071A  00AC               	movwf	___xxtofl@sign
  5991  071B                     l1925:
  5992  071B  082C               	movf	___xxtofl@sign,w
  5993  071C  1903               	btfsc	3,2
  5994  071D  2F1F               	goto	u2031
  5995  071E  2F20               	goto	u2030
  5996  071F                     u2031:
  5997  071F  2F34               	goto	l1931
  5998  0720                     u2030:
  5999  0720                     l1927:
  6000  0720  1FA7               	btfss	___xxtofl@val+3,7
  6001  0721  2F23               	goto	u2041
  6002  0722  2F24               	goto	u2040
  6003  0723                     u2041:
  6004  0723  2F34               	goto	l1931
  6005  0724                     u2040:
  6006  0724                     l1929:
  6007  0724  0924               	comf	___xxtofl@val,w
  6008  0725  00AE               	movwf	___xxtofl@arg
  6009  0726  0925               	comf	___xxtofl@val+1,w
  6010  0727  00AF               	movwf	___xxtofl@arg+1
  6011  0728  0926               	comf	___xxtofl@val+2,w
  6012  0729  00B0               	movwf	___xxtofl@arg+2
  6013  072A  0927               	comf	___xxtofl@val+3,w
  6014  072B  00B1               	movwf	___xxtofl@arg+3
  6015  072C  0AAE               	incf	___xxtofl@arg,f
  6016  072D  1903               	skipnz
  6017  072E  0AAF               	incf	___xxtofl@arg+1,f
  6018  072F  1903               	skipnz
  6019  0730  0AB0               	incf	___xxtofl@arg+2,f
  6020  0731  1903               	skipnz
  6021  0732  0AB1               	incf	___xxtofl@arg+3,f
  6022  0733  2F3C               	goto	l728
  6023  0734                     l1931:
  6024  0734  0827               	movf	___xxtofl@val+3,w
  6025  0735  00B1               	movwf	___xxtofl@arg+3
  6026  0736  0826               	movf	___xxtofl@val+2,w
  6027  0737  00B0               	movwf	___xxtofl@arg+2
  6028  0738  0825               	movf	___xxtofl@val+1,w
  6029  0739  00AF               	movwf	___xxtofl@arg+1
  6030  073A  0824               	movf	___xxtofl@val,w
  6031  073B  00AE               	movwf	___xxtofl@arg
  6032  073C                     l728:
  6033  073C  0827               	movf	___xxtofl@val+3,w
  6034  073D  0426               	iorwf	___xxtofl@val+2,w
  6035  073E  0425               	iorwf	___xxtofl@val+1,w
  6036  073F  0424               	iorwf	___xxtofl@val,w
  6037  0740  1D03               	skipz
  6038  0741  2F43               	goto	u2051
  6039  0742  2F44               	goto	u2050
  6040  0743                     u2051:
  6041  0743  2F4D               	goto	l1937
  6042  0744                     u2050:
  6043  0744                     l1933:
  6044  0744  3000               	movlw	0
  6045  0745  00A7               	movwf	?___xxtofl+3
  6046  0746  3000               	movlw	0
  6047  0747  00A6               	movwf	?___xxtofl+2
  6048  0748  3000               	movlw	0
  6049  0749  00A5               	movwf	?___xxtofl+1
  6050  074A  3000               	movlw	0
  6051  074B  00A4               	movwf	?___xxtofl
  6052  074C  2FD3               	goto	l730
  6053  074D                     l1937:
  6054  074D  3096               	movlw	150
  6055  074E  00A8               	movwf	??___xxtofl
  6056  074F  0828               	movf	??___xxtofl,w
  6057  0750  00AD               	movwf	___xxtofl@exp
  6058  0751  2F5F               	goto	l1941
  6059  0752                     l1939:
  6060  0752  3001               	movlw	1
  6061  0753  00A8               	movwf	??___xxtofl
  6062  0754  0828               	movf	??___xxtofl,w
  6063  0755  07AD               	addwf	___xxtofl@exp,f
  6064  0756  3001               	movlw	1
  6065  0757                     u2065:
  6066  0757  1003               	clrc
  6067  0758  0CB1               	rrf	___xxtofl@arg+3,f
  6068  0759  0CB0               	rrf	___xxtofl@arg+2,f
  6069  075A  0CAF               	rrf	___xxtofl@arg+1,f
  6070  075B  0CAE               	rrf	___xxtofl@arg,f
  6071  075C  3EFF               	addlw	-1
  6072  075D  1D03               	skipz
  6073  075E  2F57               	goto	u2065
  6074  075F                     l1941:
  6075  075F  30FE               	movlw	254
  6076  0760  0531               	andwf	___xxtofl@arg+3,w
  6077  0761  1D03               	btfss	3,2
  6078  0762  2F64               	goto	u2071
  6079  0763  2F65               	goto	u2070
  6080  0764                     u2071:
  6081  0764  2F52               	goto	l1939
  6082  0765                     u2070:
  6083  0765  2F81               	goto	l734
  6084  0766                     l1943:
  6085  0766  3001               	movlw	1
  6086  0767  00A8               	movwf	??___xxtofl
  6087  0768  0828               	movf	??___xxtofl,w
  6088  0769  07AD               	addwf	___xxtofl@exp,f
  6089  076A                     l1945:
  6090  076A  3001               	movlw	1
  6091  076B  07AE               	addwf	___xxtofl@arg,f
  6092  076C  3000               	movlw	0
  6093  076D  1803               	skipnc
  6094  076E  3001               	movlw	1
  6095  076F  07AF               	addwf	___xxtofl@arg+1,f
  6096  0770  3000               	movlw	0
  6097  0771  1803               	skipnc
  6098  0772  3001               	movlw	1
  6099  0773  07B0               	addwf	___xxtofl@arg+2,f
  6100  0774  3000               	movlw	0
  6101  0775  1803               	skipnc
  6102  0776  3001               	movlw	1
  6103  0777  07B1               	addwf	___xxtofl@arg+3,f
  6104  0778                     l1947:
  6105  0778  3001               	movlw	1
  6106  0779                     u2085:
  6107  0779  1003               	clrc
  6108  077A  0CB1               	rrf	___xxtofl@arg+3,f
  6109  077B  0CB0               	rrf	___xxtofl@arg+2,f
  6110  077C  0CAF               	rrf	___xxtofl@arg+1,f
  6111  077D  0CAE               	rrf	___xxtofl@arg,f
  6112  077E  3EFF               	addlw	-1
  6113  077F  1D03               	skipz
  6114  0780  2F79               	goto	u2085
  6115  0781                     l734:
  6116  0781  30FF               	movlw	255
  6117  0782  0531               	andwf	___xxtofl@arg+3,w
  6118  0783  1D03               	btfss	3,2
  6119  0784  2F86               	goto	u2091
  6120  0785  2F87               	goto	u2090
  6121  0786                     u2091:
  6122  0786  2F66               	goto	l1943
  6123  0787                     u2090:
  6124  0787  2F93               	goto	l1951
  6125  0788                     l1949:
  6126  0788  3001               	movlw	1
  6127  0789  02AD               	subwf	___xxtofl@exp,f
  6128  078A  3001               	movlw	1
  6129  078B  00A8               	movwf	??___xxtofl
  6130  078C                     u2105:
  6131  078C  1003               	clrc
  6132  078D  0DAE               	rlf	___xxtofl@arg,f
  6133  078E  0DAF               	rlf	___xxtofl@arg+1,f
  6134  078F  0DB0               	rlf	___xxtofl@arg+2,f
  6135  0790  0DB1               	rlf	___xxtofl@arg+3,f
  6136  0791  0BA8               	decfsz	??___xxtofl,f
  6137  0792  2F8C               	goto	u2105
  6138  0793                     l1951:
  6139  0793  1BB0               	btfsc	___xxtofl@arg+2,7
  6140  0794  2F96               	goto	u2111
  6141  0795  2F97               	goto	u2110
  6142  0796                     u2111:
  6143  0796  2F9D               	goto	l741
  6144  0797                     u2110:
  6145  0797                     l1953:
  6146  0797  3002               	movlw	2
  6147  0798  022D               	subwf	___xxtofl@exp,w
  6148  0799  1803               	skipnc
  6149  079A  2F9C               	goto	u2121
  6150  079B  2F9D               	goto	u2120
  6151  079C                     u2121:
  6152  079C  2F88               	goto	l1949
  6153  079D                     u2120:
  6154  079D                     l741:
  6155  079D  182D               	btfsc	___xxtofl@exp,0
  6156  079E  2FA0               	goto	u2131
  6157  079F  2FA1               	goto	u2130
  6158  07A0                     u2131:
  6159  07A0  2FA9               	goto	l742
  6160  07A1                     u2130:
  6161  07A1                     l1955:
  6162  07A1  30FF               	movlw	255
  6163  07A2  05AE               	andwf	___xxtofl@arg,f
  6164  07A3  30FF               	movlw	255
  6165  07A4  05AF               	andwf	___xxtofl@arg+1,f
  6166  07A5  307F               	movlw	127
  6167  07A6  05B0               	andwf	___xxtofl@arg+2,f
  6168  07A7  30FF               	movlw	255
  6169  07A8  05B1               	andwf	___xxtofl@arg+3,f
  6170  07A9                     l742:
  6171  07A9  1003               	clrc
  6172  07AA  0CAD               	rrf	___xxtofl@exp,f
  6173  07AB                     l1957:
  6174  07AB  082D               	movf	___xxtofl@exp,w
  6175  07AC  00A8               	movwf	??___xxtofl
  6176  07AD  01A9               	clrf	??___xxtofl+1
  6177  07AE  01AA               	clrf	??___xxtofl+2
  6178  07AF  01AB               	clrf	??___xxtofl+3
  6179  07B0  3018               	movlw	24
  6180  07B1                     u2145:
  6181  07B1  1003               	clrc
  6182  07B2  0DA8               	rlf	??___xxtofl,f
  6183  07B3  0DA9               	rlf	??___xxtofl+1,f
  6184  07B4  0DAA               	rlf	??___xxtofl+2,f
  6185  07B5  0DAB               	rlf	??___xxtofl+3,f
  6186  07B6                     u2140:
  6187  07B6  3EFF               	addlw	-1
  6188  07B7  1D03               	skipz
  6189  07B8  2FB1               	goto	u2145
  6190  07B9  0828               	movf	??___xxtofl,w
  6191  07BA  04AE               	iorwf	___xxtofl@arg,f
  6192  07BB  0829               	movf	??___xxtofl+1,w
  6193  07BC  04AF               	iorwf	___xxtofl@arg+1,f
  6194  07BD  082A               	movf	??___xxtofl+2,w
  6195  07BE  04B0               	iorwf	___xxtofl@arg+2,f
  6196  07BF  082B               	movf	??___xxtofl+3,w
  6197  07C0  04B1               	iorwf	___xxtofl@arg+3,f
  6198  07C1                     l1959:
  6199  07C1  082C               	movf	___xxtofl@sign,w
  6200  07C2  1903               	btfsc	3,2
  6201  07C3  2FC5               	goto	u2151
  6202  07C4  2FC6               	goto	u2150
  6203  07C5                     u2151:
  6204  07C5  2FCB               	goto	l1965
  6205  07C6                     u2150:
  6206  07C6                     l1961:
  6207  07C6  1FA7               	btfss	___xxtofl@val+3,7
  6208  07C7  2FC9               	goto	u2161
  6209  07C8  2FCA               	goto	u2160
  6210  07C9                     u2161:
  6211  07C9  2FCB               	goto	l1965
  6212  07CA                     u2160:
  6213  07CA                     l1963:
  6214  07CA  17B1               	bsf	___xxtofl@arg+3,7
  6215  07CB                     l1965:
  6216  07CB  0831               	movf	___xxtofl@arg+3,w
  6217  07CC  00A7               	movwf	?___xxtofl+3
  6218  07CD  0830               	movf	___xxtofl@arg+2,w
  6219  07CE  00A6               	movwf	?___xxtofl+2
  6220  07CF  082F               	movf	___xxtofl@arg+1,w
  6221  07D0  00A5               	movwf	?___xxtofl+1
  6222  07D1  082E               	movf	___xxtofl@arg,w
  6223  07D2  00A4               	movwf	?___xxtofl
  6224  07D3                     l730:
  6225  07D3  0008               	return
  6226  07D4                     __end_of___xxtofl:
  6227                           
  6228                           	psect	text14
  6229  166E                     __ptext14:	
  6230 ;; *************** function _Lcd_Write_String *****************
  6231 ;; Defined at:
  6232 ;;		line 96 in file "./LCD.h"
  6233 ;; Parameters:    Size  Location     Type
  6234 ;;  a               2    9[BANK0 ] PTR unsigned char 
  6235 ;;		 -> STR_12(9), STR_11(17), STR_10(16), STR_9(14), 
  6236 ;;		 -> STR_8(16), STR_7(14), Lcd_Padrao@buffer(20), STR_2(13), 
  6237 ;;		 -> STR_1(14), 
  6238 ;; Auto vars:     Size  Location     Type
  6239 ;;  i               2   14[BANK0 ] int 
  6240 ;; Return value:  Size  Location     Type
  6241 ;;                  1    wreg      void 
  6242 ;; Registers used:
  6243 ;;		wreg, fsr0l, fsr0h, status,2, status,0, btemp+1, pclath, cstack
  6244 ;; Tracked objects:
  6245 ;;		On entry : 0/0
  6246 ;;		On exit  : 0/0
  6247 ;;		Unchanged: 0/0
  6248 ;; Data sizes:     COMMON   BANK0   BANK1   BANK3   BANK2
  6249 ;;      Params:         0       2       0       0       0
  6250 ;;      Locals:         0       2       0       0       0
  6251 ;;      Temps:          0       3       0       0       0
  6252 ;;      Totals:         0       7       0       0       0
  6253 ;;Total ram usage:        7 bytes
  6254 ;; Hardware stack levels used: 1
  6255 ;; Hardware stack levels required when called: 6
  6256 ;; This function calls:
  6257 ;;		_Lcd_Write_Char
  6258 ;; This function is called by:
  6259 ;;		_Lcd_Padrao
  6260 ;;		_main
  6261 ;; This function uses a non-reentrant model
  6262 ;;
  6263                           
  6264  166E                     _Lcd_Write_String:	
  6265                           ;psect for function _Lcd_Write_String
  6266                           
  6267  166E                     l2001:	
  6268                           ;incstack = 0
  6269                           ; Regs used in _Lcd_Write_String: [wreg-fsr0h+status,2+status,0+btemp+1+pclath+cstack]
  6270                           
  6271                           
  6272                           ;./LCD.h: 96: void Lcd_Write_String(char *a);./LCD.h: 97: {;./LCD.h: 98:  int i;;./LCD.h
      +                          : 99:  for(i=0;a[i]!='\0';i++)
  6273  166E  1283               	bcf	3,5	;RP0=0, select bank0
  6274  166F  1303               	bcf	3,6	;RP1=0, select bank0
  6275  1670  01AE               	clrf	Lcd_Write_String@i
  6276  1671  01AF               	clrf	Lcd_Write_String@i+1
  6277  1672  2E97               	goto	l2007
  6278  1673                     l2003:
  6279                           
  6280                           ;./LCD.h: 100:     Lcd_Write_Char(a[i]);
  6281  1673  082E               	movf	Lcd_Write_String@i,w
  6282  1674  0729               	addwf	Lcd_Write_String@a,w
  6283  1675  00AC               	movwf	??_Lcd_Write_String+1
  6284  1676  082A               	movf	Lcd_Write_String@a+1,w
  6285  1677  00AB               	movwf	??_Lcd_Write_String
  6286  1678  1803               	skipnc
  6287  1679  0AAB               	incf	??_Lcd_Write_String,f
  6288  167A  1FAE               	btfss	Lcd_Write_String@i,7
  6289  167B  2E7D               	goto	u2250
  6290  167C  03AB               	decf	??_Lcd_Write_String,f
  6291  167D                     u2250:
  6292  167D  1283               	bcf	3,5	;RP0=0, select bank0
  6293  167E  1303               	bcf	3,6	;RP1=0, select bank0
  6294  167F  082B               	movf	??_Lcd_Write_String,w
  6295  1680  00AD               	movwf	??_Lcd_Write_String+2
  6296  1681  082D               	movf	??_Lcd_Write_String+2,w
  6297  1682  00FF               	movwf	btemp+1
  6298  1683  082C               	movf	??_Lcd_Write_String+1,w
  6299  1684  0084               	movwf	4
  6300  1685  120A  158A  2000  160A  118A  	fcall	stringtab
  6301  168A  160A  118A  25EF  160A  118A  	fcall	_Lcd_Write_Char
  6302  168F                     l2005:
  6303  168F  3001               	movlw	1
  6304  1690  1283               	bcf	3,5	;RP0=0, select bank0
  6305  1691  1303               	bcf	3,6	;RP1=0, select bank0
  6306  1692  07AE               	addwf	Lcd_Write_String@i,f
  6307  1693  1803               	skipnc
  6308  1694  0AAF               	incf	Lcd_Write_String@i+1,f
  6309  1695  3000               	movlw	0
  6310  1696  07AF               	addwf	Lcd_Write_String@i+1,f
  6311  1697                     l2007:
  6312  1697  082E               	movf	Lcd_Write_String@i,w
  6313  1698  0729               	addwf	Lcd_Write_String@a,w
  6314  1699  00AC               	movwf	??_Lcd_Write_String+1
  6315  169A  082A               	movf	Lcd_Write_String@a+1,w
  6316  169B  00AB               	movwf	??_Lcd_Write_String
  6317  169C  1803               	skipnc
  6318  169D  0AAB               	incf	??_Lcd_Write_String,f
  6319  169E  1FAE               	btfss	Lcd_Write_String@i,7
  6320  169F  2EA1               	goto	u2260
  6321  16A0  03AB               	decf	??_Lcd_Write_String,f
  6322  16A1                     u2260:
  6323  16A1  1283               	bcf	3,5	;RP0=0, select bank0
  6324  16A2  1303               	bcf	3,6	;RP1=0, select bank0
  6325  16A3  082B               	movf	??_Lcd_Write_String,w
  6326  16A4  00AD               	movwf	??_Lcd_Write_String+2
  6327  16A5  082D               	movf	??_Lcd_Write_String+2,w
  6328  16A6  00FF               	movwf	btemp+1
  6329  16A7  082C               	movf	??_Lcd_Write_String+1,w
  6330  16A8  0084               	movwf	4
  6331  16A9  120A  158A  2000  160A  118A  	fcall	stringtab
  6332  16AE  3A00               	xorlw	0
  6333  16AF  1D03               	skipz
  6334  16B0  2EB2               	goto	u2271
  6335  16B1  2EB3               	goto	u2270
  6336  16B2                     u2271:
  6337  16B2  2E73               	goto	l2003
  6338  16B3                     u2270:
  6339  16B3                     l97:
  6340  16B3  0008               	return
  6341  16B4                     __end_of_Lcd_Write_String:
  6342                           
  6343                           	psect	text15
  6344  15EF                     __ptext15:	
  6345 ;; *************** function _Lcd_Write_Char *****************
  6346 ;; Defined at:
  6347 ;;		line 80 in file "./LCD.h"
  6348 ;; Parameters:    Size  Location     Type
  6349 ;;  a               1    wreg     unsigned char 
  6350 ;; Auto vars:     Size  Location     Type
  6351 ;;  a               1    8[BANK0 ] unsigned char 
  6352 ;;  y               1    7[BANK0 ] unsigned char 
  6353 ;;  temp            1    6[BANK0 ] unsigned char 
  6354 ;; Return value:  Size  Location     Type
  6355 ;;                  1    wreg      void 
  6356 ;; Registers used:
  6357 ;;		wreg, status,2, status,0, pclath, cstack
  6358 ;; Tracked objects:
  6359 ;;		On entry : 0/0
  6360 ;;		On exit  : 0/0
  6361 ;;		Unchanged: 0/0
  6362 ;; Data sizes:     COMMON   BANK0   BANK1   BANK3   BANK2
  6363 ;;      Params:         0       0       0       0       0
  6364 ;;      Locals:         0       3       0       0       0
  6365 ;;      Temps:          0       1       0       0       0
  6366 ;;      Totals:         0       4       0       0       0
  6367 ;;Total ram usage:        4 bytes
  6368 ;; Hardware stack levels used: 1
  6369 ;; Hardware stack levels required when called: 5
  6370 ;; This function calls:
  6371 ;;		_Lcd_Port
  6372 ;; This function is called by:
  6373 ;;		_Lcd_Write_String
  6374 ;; This function uses a non-reentrant model
  6375 ;;
  6376                           
  6377  15EF                     _Lcd_Write_Char:	
  6378                           ;psect for function _Lcd_Write_Char
  6379                           
  6380                           
  6381                           ;incstack = 0
  6382                           ; Regs used in _Lcd_Write_Char: [wreg+status,2+status,0+pclath+cstack]
  6383                           ;Lcd_Write_Char@a stored from wreg
  6384  15EF  1283               	bcf	3,5	;RP0=0, select bank0
  6385  15F0  1303               	bcf	3,6	;RP1=0, select bank0
  6386  15F1  00A8               	movwf	Lcd_Write_Char@a
  6387  15F2                     l1843:
  6388                           
  6389                           ;./LCD.h: 80: void Lcd_Write_Char(char a);./LCD.h: 81: {;./LCD.h: 82:    char temp,y;;./
      +                          LCD.h: 83:    temp = a&0x0F;
  6390  15F2  0828               	movf	Lcd_Write_Char@a,w
  6391  15F3  390F               	andlw	15
  6392  15F4  00A5               	movwf	??_Lcd_Write_Char
  6393  15F5  0825               	movf	??_Lcd_Write_Char,w
  6394  15F6  00A6               	movwf	Lcd_Write_Char@temp
  6395                           
  6396                           ;./LCD.h: 84:    y = a&0xF0;
  6397  15F7  0828               	movf	Lcd_Write_Char@a,w
  6398  15F8  39F0               	andlw	240
  6399  15F9  00A5               	movwf	??_Lcd_Write_Char
  6400  15FA  0825               	movf	??_Lcd_Write_Char,w
  6401  15FB  00A7               	movwf	Lcd_Write_Char@y
  6402  15FC                     l1845:
  6403                           
  6404                           ;./LCD.h: 85:    RC0 = 1;
  6405  15FC  1407               	bsf	7,0	;volatile
  6406  15FD                     l1847:
  6407                           
  6408                           ;./LCD.h: 86:    Lcd_Port(y>>4);
  6409  15FD  0827               	movf	Lcd_Write_Char@y,w
  6410  15FE  00A5               	movwf	??_Lcd_Write_Char
  6411  15FF  3004               	movlw	4
  6412  1600                     u1865:
  6413  1600  1003               	clrc
  6414  1601  0CA5               	rrf	??_Lcd_Write_Char,f
  6415  1602  3EFF               	addlw	-1
  6416  1603  1D03               	skipz
  6417  1604  2E00               	goto	u1865
  6418  1605  0825               	movf	??_Lcd_Write_Char,w
  6419  1606  160A  118A  253A  160A  118A  	fcall	_Lcd_Port
  6420  160B                     l1849:
  6421                           
  6422                           ;./LCD.h: 87:    RC2 = 1;
  6423  160B  1283               	bcf	3,5	;RP0=0, select bank0
  6424  160C  1303               	bcf	3,6	;RP1=0, select bank0
  6425  160D  1507               	bsf	7,2	;volatile
  6426  160E                     l1851:
  6427                           
  6428                           ;./LCD.h: 88:    _delay((unsigned long)((40)*(4000000/4000000.0)));
  6429  160E  300C               	movlw	12
  6430  160F  1283               	bcf	3,5	;RP0=0, select bank0
  6431  1610  1303               	bcf	3,6	;RP1=0, select bank0
  6432  1611  00A5               	movwf	??_Lcd_Write_Char
  6433  1612                     u4117:
  6434  1612  0BA5               	decfsz	??_Lcd_Write_Char,f
  6435  1613  2E12               	goto	u4117
  6436  1614  0000               	nop
  6437  1615                     l1853:
  6438                           
  6439                           ;./LCD.h: 89:    RC2 = 0;
  6440  1615  1283               	bcf	3,5	;RP0=0, select bank0
  6441  1616  1303               	bcf	3,6	;RP1=0, select bank0
  6442  1617  1107               	bcf	7,2	;volatile
  6443  1618                     l1855:
  6444                           
  6445                           ;./LCD.h: 90:    Lcd_Port(temp);
  6446  1618  0826               	movf	Lcd_Write_Char@temp,w
  6447  1619  160A  118A  253A  160A  118A  	fcall	_Lcd_Port
  6448  161E                     l1857:
  6449                           
  6450                           ;./LCD.h: 91:    RC2 = 1;
  6451  161E  1283               	bcf	3,5	;RP0=0, select bank0
  6452  161F  1303               	bcf	3,6	;RP1=0, select bank0
  6453  1620  1507               	bsf	7,2	;volatile
  6454  1621                     l1859:
  6455                           
  6456                           ;./LCD.h: 92:    _delay((unsigned long)((40)*(4000000/4000000.0)));
  6457  1621  300C               	movlw	12
  6458  1622  1283               	bcf	3,5	;RP0=0, select bank0
  6459  1623  1303               	bcf	3,6	;RP1=0, select bank0
  6460  1624  00A5               	movwf	??_Lcd_Write_Char
  6461  1625                     u4127:
  6462  1625  0BA5               	decfsz	??_Lcd_Write_Char,f
  6463  1626  2E25               	goto	u4127
  6464  1627  0000               	nop
  6465  1628                     l1861:
  6466                           
  6467                           ;./LCD.h: 93:    RC2 = 0;
  6468  1628  1283               	bcf	3,5	;RP0=0, select bank0
  6469  1629  1303               	bcf	3,6	;RP1=0, select bank0
  6470  162A  1107               	bcf	7,2	;volatile
  6471  162B                     l91:
  6472  162B  0008               	return
  6473  162C                     __end_of_Lcd_Write_Char:
  6474                           
  6475                           	psect	text16
  6476  17A8                     __ptext16:	
  6477 ;; *************** function _Lcd_Set_Cursor *****************
  6478 ;; Defined at:
  6479 ;;		line 40 in file "./LCD.h"
  6480 ;; Parameters:    Size  Location     Type
  6481 ;;  a               1    wreg     unsigned char 
  6482 ;;  b               1    8[BANK0 ] unsigned char 
  6483 ;; Auto vars:     Size  Location     Type
  6484 ;;  a               1   11[BANK0 ] unsigned char 
  6485 ;;  temp            1   14[BANK0 ] unsigned char 
  6486 ;;  y               1   13[BANK0 ] unsigned char 
  6487 ;;  z               1   12[BANK0 ] unsigned char 
  6488 ;; Return value:  Size  Location     Type
  6489 ;;                  1    wreg      void 
  6490 ;; Registers used:
  6491 ;;		wreg, status,2, status,0, pclath, cstack
  6492 ;; Tracked objects:
  6493 ;;		On entry : 0/0
  6494 ;;		On exit  : 0/0
  6495 ;;		Unchanged: 0/0
  6496 ;; Data sizes:     COMMON   BANK0   BANK1   BANK3   BANK2
  6497 ;;      Params:         0       1       0       0       0
  6498 ;;      Locals:         0       4       0       0       0
  6499 ;;      Temps:          0       2       0       0       0
  6500 ;;      Totals:         0       7       0       0       0
  6501 ;;Total ram usage:        7 bytes
  6502 ;; Hardware stack levels used: 1
  6503 ;; Hardware stack levels required when called: 6
  6504 ;; This function calls:
  6505 ;;		_Lcd_Cmd
  6506 ;; This function is called by:
  6507 ;;		_Lcd_Padrao
  6508 ;;		_main
  6509 ;; This function uses a non-reentrant model
  6510 ;;
  6511                           
  6512  17A8                     _Lcd_Set_Cursor:	
  6513                           ;psect for function _Lcd_Set_Cursor
  6514                           
  6515                           
  6516                           ;incstack = 0
  6517                           ; Regs used in _Lcd_Set_Cursor: [wreg+status,2+status,0+pclath+cstack]
  6518                           ;Lcd_Set_Cursor@a stored from wreg
  6519  17A8  1283               	bcf	3,5	;RP0=0, select bank0
  6520  17A9  1303               	bcf	3,6	;RP1=0, select bank0
  6521  17AA  00AB               	movwf	Lcd_Set_Cursor@a
  6522  17AB                     l1981:
  6523                           
  6524                           ;./LCD.h: 40: void Lcd_Set_Cursor(char a, char b);./LCD.h: 41: {;./LCD.h: 42:  char temp
      +                          ,z,y;;./LCD.h: 43:  if(a == 1)
  6525  17AB  032B               	decf	Lcd_Set_Cursor@a,w
  6526  17AC  1D03               	btfss	3,2
  6527  17AD  2FAF               	goto	u2211
  6528  17AE  2FB0               	goto	u2210
  6529  17AF                     u2211:
  6530  17AF  2FD5               	goto	l1991
  6531  17B0                     u2210:
  6532  17B0                     l1983:
  6533                           
  6534                           ;./LCD.h: 44:  {;./LCD.h: 45:    temp = 0x80 + b - 1;
  6535  17B0  0828               	movf	Lcd_Set_Cursor@b,w
  6536  17B1  3E7F               	addlw	127
  6537  17B2  00A9               	movwf	??_Lcd_Set_Cursor
  6538  17B3  0829               	movf	??_Lcd_Set_Cursor,w
  6539  17B4  00AE               	movwf	Lcd_Set_Cursor@temp
  6540                           
  6541                           ;./LCD.h: 46:   z = temp>>4;
  6542  17B5  082E               	movf	Lcd_Set_Cursor@temp,w
  6543  17B6  00A9               	movwf	??_Lcd_Set_Cursor
  6544  17B7  3004               	movlw	4
  6545  17B8                     u2225:
  6546  17B8  1003               	clrc
  6547  17B9  0CA9               	rrf	??_Lcd_Set_Cursor,f
  6548  17BA  3EFF               	addlw	-1
  6549  17BB  1D03               	skipz
  6550  17BC  2FB8               	goto	u2225
  6551  17BD  0829               	movf	??_Lcd_Set_Cursor,w
  6552  17BE  00AA               	movwf	??_Lcd_Set_Cursor+1
  6553  17BF  082A               	movf	??_Lcd_Set_Cursor+1,w
  6554  17C0  00AC               	movwf	Lcd_Set_Cursor@z
  6555  17C1                     l1985:
  6556                           
  6557                           ;./LCD.h: 47:   y = temp & 0x0F;
  6558  17C1  082E               	movf	Lcd_Set_Cursor@temp,w
  6559  17C2  390F               	andlw	15
  6560  17C3  00A9               	movwf	??_Lcd_Set_Cursor
  6561  17C4  0829               	movf	??_Lcd_Set_Cursor,w
  6562  17C5  00AD               	movwf	Lcd_Set_Cursor@y
  6563  17C6                     l1987:
  6564                           
  6565                           ;./LCD.h: 48:   Lcd_Cmd(z);
  6566  17C6  082C               	movf	Lcd_Set_Cursor@z,w
  6567  17C7  160A  118A  251E  160A  118A  	fcall	_Lcd_Cmd
  6568  17CC                     l1989:
  6569                           
  6570                           ;./LCD.h: 49:   Lcd_Cmd(y);
  6571  17CC  1283               	bcf	3,5	;RP0=0, select bank0
  6572  17CD  1303               	bcf	3,6	;RP1=0, select bank0
  6573  17CE  082D               	movf	Lcd_Set_Cursor@y,w
  6574  17CF  160A  118A  251E  160A  118A  	fcall	_Lcd_Cmd
  6575                           
  6576                           ;./LCD.h: 50:  }
  6577  17D4  2FFF               	goto	l85
  6578  17D5                     l1991:
  6579  17D5  3002               	movlw	2
  6580  17D6  062B               	xorwf	Lcd_Set_Cursor@a,w
  6581  17D7  1D03               	btfss	3,2
  6582  17D8  2FDA               	goto	u2231
  6583  17D9  2FDB               	goto	u2230
  6584  17DA                     u2231:
  6585  17DA  2FFF               	goto	l85
  6586  17DB                     u2230:
  6587  17DB                     l1993:
  6588                           
  6589                           ;./LCD.h: 52:  {;./LCD.h: 53:   temp = 0xC0 + b - 1;
  6590  17DB  0828               	movf	Lcd_Set_Cursor@b,w
  6591  17DC  3EBF               	addlw	191
  6592  17DD  00A9               	movwf	??_Lcd_Set_Cursor
  6593  17DE  0829               	movf	??_Lcd_Set_Cursor,w
  6594  17DF  00AE               	movwf	Lcd_Set_Cursor@temp
  6595                           
  6596                           ;./LCD.h: 54:   z = temp>>4;
  6597  17E0  082E               	movf	Lcd_Set_Cursor@temp,w
  6598  17E1  00A9               	movwf	??_Lcd_Set_Cursor
  6599  17E2  3004               	movlw	4
  6600  17E3                     u2245:
  6601  17E3  1003               	clrc
  6602  17E4  0CA9               	rrf	??_Lcd_Set_Cursor,f
  6603  17E5  3EFF               	addlw	-1
  6604  17E6  1D03               	skipz
  6605  17E7  2FE3               	goto	u2245
  6606  17E8  0829               	movf	??_Lcd_Set_Cursor,w
  6607  17E9  00AA               	movwf	??_Lcd_Set_Cursor+1
  6608  17EA  082A               	movf	??_Lcd_Set_Cursor+1,w
  6609  17EB  00AC               	movwf	Lcd_Set_Cursor@z
  6610  17EC                     l1995:
  6611                           
  6612                           ;./LCD.h: 55:   y = temp & 0x0F;
  6613  17EC  082E               	movf	Lcd_Set_Cursor@temp,w
  6614  17ED  390F               	andlw	15
  6615  17EE  00A9               	movwf	??_Lcd_Set_Cursor
  6616  17EF  0829               	movf	??_Lcd_Set_Cursor,w
  6617  17F0  00AD               	movwf	Lcd_Set_Cursor@y
  6618  17F1                     l1997:
  6619                           
  6620                           ;./LCD.h: 56:   Lcd_Cmd(z);
  6621  17F1  082C               	movf	Lcd_Set_Cursor@z,w
  6622  17F2  160A  118A  251E  160A  118A  	fcall	_Lcd_Cmd
  6623  17F7                     l1999:
  6624                           
  6625                           ;./LCD.h: 57:   Lcd_Cmd(y);
  6626  17F7  1283               	bcf	3,5	;RP0=0, select bank0
  6627  17F8  1303               	bcf	3,6	;RP1=0, select bank0
  6628  17F9  082D               	movf	Lcd_Set_Cursor@y,w
  6629  17FA  160A  118A  251E  160A  118A  	fcall	_Lcd_Cmd
  6630  17FF                     l85:
  6631  17FF  0008               	return
  6632  1800                     __end_of_Lcd_Set_Cursor:
  6633                           
  6634                           	psect	text17
  6635  14F7                     __ptext17:	
  6636 ;; *************** function _Lcd_Clear *****************
  6637 ;; Defined at:
  6638 ;;		line 34 in file "./LCD.h"
  6639 ;; Parameters:    Size  Location     Type
  6640 ;;		None
  6641 ;; Auto vars:     Size  Location     Type
  6642 ;;		None
  6643 ;; Return value:  Size  Location     Type
  6644 ;;                  1    wreg      void 
  6645 ;; Registers used:
  6646 ;;		wreg, status,2, status,0, pclath, cstack
  6647 ;; Tracked objects:
  6648 ;;		On entry : 0/0
  6649 ;;		On exit  : 0/0
  6650 ;;		Unchanged: 0/0
  6651 ;; Data sizes:     COMMON   BANK0   BANK1   BANK3   BANK2
  6652 ;;      Params:         0       0       0       0       0
  6653 ;;      Locals:         0       0       0       0       0
  6654 ;;      Temps:          0       0       0       0       0
  6655 ;;      Totals:         0       0       0       0       0
  6656 ;;Total ram usage:        0 bytes
  6657 ;; Hardware stack levels used: 1
  6658 ;; Hardware stack levels required when called: 6
  6659 ;; This function calls:
  6660 ;;		_Lcd_Cmd
  6661 ;; This function is called by:
  6662 ;;		_Lcd_Padrao
  6663 ;;		_main
  6664 ;; This function uses a non-reentrant model
  6665 ;;
  6666                           
  6667  14F7                     _Lcd_Clear:	
  6668                           ;psect for function _Lcd_Clear
  6669                           
  6670  14F7                     l1979:	
  6671                           ;incstack = 0
  6672                           ; Regs used in _Lcd_Clear: [wreg+status,2+status,0+pclath+cstack]
  6673                           
  6674                           
  6675                           ;./LCD.h: 36:  Lcd_Cmd(0);
  6676  14F7  3000               	movlw	0
  6677  14F8  160A  118A  251E  160A  118A  	fcall	_Lcd_Cmd
  6678                           
  6679                           ;./LCD.h: 37:  Lcd_Cmd(1);
  6680  14FD  3001               	movlw	1
  6681  14FE  160A  118A  251E  160A  118A  	fcall	_Lcd_Cmd
  6682  1503                     l79:
  6683  1503  0008               	return
  6684  1504                     __end_of_Lcd_Clear:
  6685                           
  6686                           	psect	text18
  6687  0941                     __ptext18:	
  6688 ;; *************** function _Lcd_Init *****************
  6689 ;; Defined at:
  6690 ;;		line 61 in file "./LCD.h"
  6691 ;; Parameters:    Size  Location     Type
  6692 ;;		None
  6693 ;; Auto vars:     Size  Location     Type
  6694 ;;		None
  6695 ;; Return value:  Size  Location     Type
  6696 ;;                  1    wreg      void 
  6697 ;; Registers used:
  6698 ;;		wreg, status,2, status,0, pclath, cstack
  6699 ;; Tracked objects:
  6700 ;;		On entry : 0/0
  6701 ;;		On exit  : 0/0
  6702 ;;		Unchanged: 0/0
  6703 ;; Data sizes:     COMMON   BANK0   BANK1   BANK3   BANK2
  6704 ;;      Params:         0       0       0       0       0
  6705 ;;      Locals:         0       0       0       0       0
  6706 ;;      Temps:          0       2       0       0       0
  6707 ;;      Totals:         0       2       0       0       0
  6708 ;;Total ram usage:        2 bytes
  6709 ;; Hardware stack levels used: 1
  6710 ;; Hardware stack levels required when called: 6
  6711 ;; This function calls:
  6712 ;;		_Lcd_Cmd
  6713 ;;		_Lcd_Port
  6714 ;; This function is called by:
  6715 ;;		_main
  6716 ;; This function uses a non-reentrant model
  6717 ;;
  6718                           
  6719  0941                     _Lcd_Init:	
  6720                           ;psect for function _Lcd_Init
  6721                           
  6722  0941                     l2499:	
  6723                           ;incstack = 0
  6724                           ; Regs used in _Lcd_Init: [wreg+status,2+status,0+pclath+cstack]
  6725                           
  6726                           
  6727                           ;./LCD.h: 63:   Lcd_Port(0x00);
  6728  0941  3000               	movlw	0
  6729  0942  160A  118A  253A  120A  158A  	fcall	_Lcd_Port
  6730  0947                     l2501:
  6731                           
  6732                           ;./LCD.h: 64:    _delay((unsigned long)((20)*(4000000/4000.0)));
  6733  0947  301A               	movlw	26
  6734  0948  1283               	bcf	3,5	;RP0=0, select bank0
  6735  0949  1303               	bcf	3,6	;RP1=0, select bank0
  6736  094A  00A9               	movwf	??_Lcd_Init+1
  6737  094B  30F7               	movlw	247
  6738  094C  00A8               	movwf	??_Lcd_Init
  6739  094D                     u4137:
  6740  094D  0BA8               	decfsz	??_Lcd_Init,f
  6741  094E  294D               	goto	u4137
  6742  094F  0BA9               	decfsz	??_Lcd_Init+1,f
  6743  0950  294D               	goto	u4137
  6744  0951  2952               	nop2
  6745  0952                     l2503:
  6746                           
  6747                           ;./LCD.h: 65:   Lcd_Cmd(0x03);
  6748  0952  3003               	movlw	3
  6749  0953  160A  118A  251E  120A  158A  	fcall	_Lcd_Cmd
  6750                           
  6751                           ;./LCD.h: 66:  _delay((unsigned long)((5)*(4000000/4000.0)));
  6752  0958  3007               	movlw	7
  6753  0959  1283               	bcf	3,5	;RP0=0, select bank0
  6754  095A  1303               	bcf	3,6	;RP1=0, select bank0
  6755  095B  00A9               	movwf	??_Lcd_Init+1
  6756  095C  307C               	movlw	124
  6757  095D  00A8               	movwf	??_Lcd_Init
  6758  095E                     u4147:
  6759  095E  0BA8               	decfsz	??_Lcd_Init,f
  6760  095F  295E               	goto	u4147
  6761  0960  0BA9               	decfsz	??_Lcd_Init+1,f
  6762  0961  295E               	goto	u4147
  6763  0962  0000               	nop
  6764  0963                     l2505:
  6765                           
  6766                           ;./LCD.h: 67:   Lcd_Cmd(0x03);
  6767  0963  3003               	movlw	3
  6768  0964  160A  118A  251E  120A  158A  	fcall	_Lcd_Cmd
  6769  0969                     l2507:
  6770                           
  6771                           ;./LCD.h: 68:  _delay((unsigned long)((11)*(4000000/4000.0)));
  6772  0969  300F               	movlw	15
  6773  096A  1283               	bcf	3,5	;RP0=0, select bank0
  6774  096B  1303               	bcf	3,6	;RP1=0, select bank0
  6775  096C  00A9               	movwf	??_Lcd_Init+1
  6776  096D  3047               	movlw	71
  6777  096E  00A8               	movwf	??_Lcd_Init
  6778  096F                     u4157:
  6779  096F  0BA8               	decfsz	??_Lcd_Init,f
  6780  0970  296F               	goto	u4157
  6781  0971  0BA9               	decfsz	??_Lcd_Init+1,f
  6782  0972  296F               	goto	u4157
  6783                           
  6784                           ;./LCD.h: 69:   Lcd_Cmd(0x03);
  6785  0973  3003               	movlw	3
  6786  0974  160A  118A  251E  120A  158A  	fcall	_Lcd_Cmd
  6787                           
  6788                           ;./LCD.h: 71:   Lcd_Cmd(0x02);
  6789  0979  3002               	movlw	2
  6790  097A  160A  118A  251E  120A  158A  	fcall	_Lcd_Cmd
  6791                           
  6792                           ;./LCD.h: 72:   Lcd_Cmd(0x02);
  6793  097F  3002               	movlw	2
  6794  0980  160A  118A  251E  120A  158A  	fcall	_Lcd_Cmd
  6795                           
  6796                           ;./LCD.h: 73:   Lcd_Cmd(0x08);
  6797  0985  3008               	movlw	8
  6798  0986  160A  118A  251E  120A  158A  	fcall	_Lcd_Cmd
  6799                           
  6800                           ;./LCD.h: 74:   Lcd_Cmd(0x00);
  6801  098B  3000               	movlw	0
  6802  098C  160A  118A  251E  120A  158A  	fcall	_Lcd_Cmd
  6803                           
  6804                           ;./LCD.h: 75:   Lcd_Cmd(0x0C);
  6805  0991  300C               	movlw	12
  6806  0992  160A  118A  251E  120A  158A  	fcall	_Lcd_Cmd
  6807                           
  6808                           ;./LCD.h: 76:   Lcd_Cmd(0x00);
  6809  0997  3000               	movlw	0
  6810  0998  160A  118A  251E  120A  158A  	fcall	_Lcd_Cmd
  6811                           
  6812                           ;./LCD.h: 77:   Lcd_Cmd(0x06);
  6813  099D  3006               	movlw	6
  6814  099E  160A  118A  251E  120A  158A  	fcall	_Lcd_Cmd
  6815  09A3                     l88:
  6816  09A3  0008               	return
  6817  09A4                     __end_of_Lcd_Init:
  6818                           
  6819                           	psect	text19
  6820  151E                     __ptext19:	
  6821 ;; *************** function _Lcd_Cmd *****************
  6822 ;; Defined at:
  6823 ;;		line 25 in file "./LCD.h"
  6824 ;; Parameters:    Size  Location     Type
  6825 ;;  a               1    wreg     unsigned char 
  6826 ;; Auto vars:     Size  Location     Type
  6827 ;;  a               1    7[BANK0 ] unsigned char 
  6828 ;; Return value:  Size  Location     Type
  6829 ;;                  1    wreg      void 
  6830 ;; Registers used:
  6831 ;;		wreg, status,2, status,0, pclath, cstack
  6832 ;; Tracked objects:
  6833 ;;		On entry : 0/0
  6834 ;;		On exit  : 0/0
  6835 ;;		Unchanged: 0/0
  6836 ;; Data sizes:     COMMON   BANK0   BANK1   BANK3   BANK2
  6837 ;;      Params:         0       0       0       0       0
  6838 ;;      Locals:         0       1       0       0       0
  6839 ;;      Temps:          0       2       0       0       0
  6840 ;;      Totals:         0       3       0       0       0
  6841 ;;Total ram usage:        3 bytes
  6842 ;; Hardware stack levels used: 1
  6843 ;; Hardware stack levels required when called: 5
  6844 ;; This function calls:
  6845 ;;		_Lcd_Port
  6846 ;; This function is called by:
  6847 ;;		_Lcd_Clear
  6848 ;;		_Lcd_Set_Cursor
  6849 ;;		_Lcd_Init
  6850 ;;		_Lcd_Shift_Right
  6851 ;;		_Lcd_Shift_Left
  6852 ;; This function uses a non-reentrant model
  6853 ;;
  6854                           
  6855  151E                     _Lcd_Cmd:	
  6856                           ;psect for function _Lcd_Cmd
  6857                           
  6858                           
  6859                           ;incstack = 0
  6860                           ; Regs used in _Lcd_Cmd: [wreg+status,2+status,0+pclath+cstack]
  6861                           ;Lcd_Cmd@a stored from wreg
  6862  151E  1283               	bcf	3,5	;RP0=0, select bank0
  6863  151F  1303               	bcf	3,6	;RP1=0, select bank0
  6864  1520  00A7               	movwf	Lcd_Cmd@a
  6865  1521                     l1833:
  6866                           
  6867                           ;./LCD.h: 25: void Lcd_Cmd(char a);./LCD.h: 26: {;./LCD.h: 27:  RC0 = 0;
  6868  1521  1007               	bcf	7,0	;volatile
  6869  1522                     l1835:
  6870                           
  6871                           ;./LCD.h: 28:  Lcd_Port(a);
  6872  1522  0827               	movf	Lcd_Cmd@a,w
  6873  1523  160A  118A  253A  160A  118A  	fcall	_Lcd_Port
  6874  1528                     l1837:
  6875                           
  6876                           ;./LCD.h: 29:  RC2 = 1;
  6877  1528  1283               	bcf	3,5	;RP0=0, select bank0
  6878  1529  1303               	bcf	3,6	;RP1=0, select bank0
  6879  152A  1507               	bsf	7,2	;volatile
  6880  152B                     l1839:
  6881                           
  6882                           ;./LCD.h: 30:         _delay((unsigned long)((4)*(4000000/4000.0)));
  6883  152B  3006               	movlw	6
  6884  152C  1283               	bcf	3,5	;RP0=0, select bank0
  6885  152D  1303               	bcf	3,6	;RP1=0, select bank0
  6886  152E  00A6               	movwf	??_Lcd_Cmd+1
  6887  152F  302F               	movlw	47
  6888  1530  00A5               	movwf	??_Lcd_Cmd
  6889  1531                     u4167:
  6890  1531  0BA5               	decfsz	??_Lcd_Cmd,f
  6891  1532  2D31               	goto	u4167
  6892  1533  0BA6               	decfsz	??_Lcd_Cmd+1,f
  6893  1534  2D31               	goto	u4167
  6894  1535  2D36               	nop2
  6895  1536                     l1841:
  6896                           
  6897                           ;./LCD.h: 31:         RC2 = 0;
  6898  1536  1283               	bcf	3,5	;RP0=0, select bank0
  6899  1537  1303               	bcf	3,6	;RP1=0, select bank0
  6900  1538  1107               	bcf	7,2	;volatile
  6901  1539                     l76:
  6902  1539  0008               	return
  6903  153A                     __end_of_Lcd_Cmd:
  6904                           
  6905                           	psect	text20
  6906  153A                     __ptext20:	
  6907 ;; *************** function _Lcd_Port *****************
  6908 ;; Defined at:
  6909 ;;		line 3 in file "./LCD.h"
  6910 ;; Parameters:    Size  Location     Type
  6911 ;;  a               1    wreg     unsigned char 
  6912 ;; Auto vars:     Size  Location     Type
  6913 ;;  a               1    4[BANK0 ] unsigned char 
  6914 ;; Return value:  Size  Location     Type
  6915 ;;                  1    wreg      void 
  6916 ;; Registers used:
  6917 ;;		wreg
  6918 ;; Tracked objects:
  6919 ;;		On entry : 0/0
  6920 ;;		On exit  : 0/0
  6921 ;;		Unchanged: 0/0
  6922 ;; Data sizes:     COMMON   BANK0   BANK1   BANK3   BANK2
  6923 ;;      Params:         0       0       0       0       0
  6924 ;;      Locals:         0       1       0       0       0
  6925 ;;      Temps:          0       0       0       0       0
  6926 ;;      Totals:         0       1       0       0       0
  6927 ;;Total ram usage:        1 bytes
  6928 ;; Hardware stack levels used: 1
  6929 ;; Hardware stack levels required when called: 4
  6930 ;; This function calls:
  6931 ;;		Nothing
  6932 ;; This function is called by:
  6933 ;;		_Lcd_Cmd
  6934 ;;		_Lcd_Init
  6935 ;;		_Lcd_Write_Char
  6936 ;; This function uses a non-reentrant model
  6937 ;;
  6938                           
  6939  153A                     _Lcd_Port:	
  6940                           ;psect for function _Lcd_Port
  6941                           
  6942                           
  6943                           ;incstack = 0
  6944                           ; Regs used in _Lcd_Port: [wreg]
  6945                           ;Lcd_Port@a stored from wreg
  6946  153A  1283               	bcf	3,5	;RP0=0, select bank0
  6947  153B  1303               	bcf	3,6	;RP1=0, select bank0
  6948  153C  00A4               	movwf	Lcd_Port@a
  6949  153D                     l1823:
  6950                           
  6951                           ;./LCD.h: 3: void Lcd_Port(char a);./LCD.h: 4: {;./LCD.h: 5:  if(a & 1)
  6952  153D  1C24               	btfss	Lcd_Port@a,0
  6953  153E  2D40               	goto	u1821
  6954  153F  2D41               	goto	u1820
  6955  1540                     u1821:
  6956  1540  2D43               	goto	l65
  6957  1541                     u1820:
  6958  1541                     l1825:
  6959                           
  6960                           ;./LCD.h: 6:   RC4 = 1;
  6961  1541  1607               	bsf	7,4	;volatile
  6962  1542  2D44               	goto	l66
  6963  1543                     l65:	
  6964                           ;./LCD.h: 7:  else
  6965                           
  6966                           
  6967                           ;./LCD.h: 8:   RC4 = 0;
  6968  1543  1207               	bcf	7,4	;volatile
  6969  1544                     l66:
  6970                           
  6971                           ;./LCD.h: 10:  if(a & 2)
  6972  1544  1CA4               	btfss	Lcd_Port@a,1
  6973  1545  2D47               	goto	u1831
  6974  1546  2D48               	goto	u1830
  6975  1547                     u1831:
  6976  1547  2D4A               	goto	l67
  6977  1548                     u1830:
  6978  1548                     l1827:
  6979                           
  6980                           ;./LCD.h: 11:   RC5 = 1;
  6981  1548  1687               	bsf	7,5	;volatile
  6982  1549  2D4B               	goto	l68
  6983  154A                     l67:	
  6984                           ;./LCD.h: 12:  else
  6985                           
  6986                           
  6987                           ;./LCD.h: 13:   RC5 = 0;
  6988  154A  1287               	bcf	7,5	;volatile
  6989  154B                     l68:
  6990                           
  6991                           ;./LCD.h: 15:  if(a & 4)
  6992  154B  1D24               	btfss	Lcd_Port@a,2
  6993  154C  2D4E               	goto	u1841
  6994  154D  2D4F               	goto	u1840
  6995  154E                     u1841:
  6996  154E  2D51               	goto	l69
  6997  154F                     u1840:
  6998  154F                     l1829:
  6999                           
  7000                           ;./LCD.h: 16:   RC6 = 1;
  7001  154F  1707               	bsf	7,6	;volatile
  7002  1550  2D52               	goto	l70
  7003  1551                     l69:	
  7004                           ;./LCD.h: 17:  else
  7005                           
  7006                           
  7007                           ;./LCD.h: 18:   RC6 = 0;
  7008  1551  1307               	bcf	7,6	;volatile
  7009  1552                     l70:
  7010                           
  7011                           ;./LCD.h: 20:  if(a & 8)
  7012  1552  1DA4               	btfss	Lcd_Port@a,3
  7013  1553  2D55               	goto	u1851
  7014  1554  2D56               	goto	u1850
  7015  1555                     u1851:
  7016  1555  2D58               	goto	l71
  7017  1556                     u1850:
  7018  1556                     l1831:
  7019                           
  7020                           ;./LCD.h: 21:   RC7 = 1;
  7021  1556  1787               	bsf	7,7	;volatile
  7022  1557  2D59               	goto	l73
  7023  1558                     l71:	
  7024                           ;./LCD.h: 22:  else
  7025                           
  7026                           
  7027                           ;./LCD.h: 23:   RC7 = 0;
  7028  1558  1387               	bcf	7,7	;volatile
  7029  1559                     l73:
  7030  1559  0008               	return
  7031  155A                     __end_of_Lcd_Port:
  7032                           
  7033                           	psect	text21
  7034  08DF                     __ptext21:	
  7035 ;; *************** function _tes *****************
  7036 ;; Defined at:
  7037 ;;		line 50 in file "newmain.c"
  7038 ;; Parameters:    Size  Location     Type
  7039 ;;		None
  7040 ;; Auto vars:     Size  Location     Type
  7041 ;;		None
  7042 ;; Return value:  Size  Location     Type
  7043 ;;                  1    wreg      void 
  7044 ;; Registers used:
  7045 ;;		wreg, fsr0l, fsr0h, status,2, status,0, btemp+1, pclath, cstack
  7046 ;; Tracked objects:
  7047 ;;		On entry : 0/0
  7048 ;;		On exit  : 0/0
  7049 ;;		Unchanged: 0/0
  7050 ;; Data sizes:     COMMON   BANK0   BANK1   BANK3   BANK2
  7051 ;;      Params:         0       0       0       0       0
  7052 ;;      Locals:         0       0       0       0       0
  7053 ;;      Temps:          0       4       0       0       0
  7054 ;;      Totals:         0       4       0       0       0
  7055 ;;Total ram usage:        4 bytes
  7056 ;; Hardware stack levels used: 1
  7057 ;; Hardware stack levels required when called: 3
  7058 ;; This function calls:
  7059 ;;		i1_Lcd_Clear
  7060 ;;		i1_Lcd_Set_Cursor
  7061 ;;		i1_Lcd_Write_String
  7062 ;; This function is called by:
  7063 ;;		Interrupt level 1
  7064 ;; This function uses a non-reentrant model
  7065 ;;
  7066                           
  7067  08DF                     _tes:	
  7068                           ;psect for function _tes
  7069                           
  7070  08DF                     i1l2611:
  7071                           
  7072                           ;newmain.c: 51:     if(TMR1IF){
  7073  08DF  1C0C               	btfss	12,0	;volatile
  7074  08E0  28E2               	goto	u342_21
  7075  08E1  28E3               	goto	u342_20
  7076  08E2                     u342_21:
  7077  08E2  2900               	goto	i1l124
  7078  08E3                     u342_20:
  7079  08E3                     i1l2613:
  7080                           
  7081                           ;newmain.c: 52:         PIR1bits.TMR1IF = 0;
  7082  08E3  100C               	bcf	12,0	;volatile
  7083  08E4                     i1l2615:
  7084                           
  7085                           ;newmain.c: 53:         TMR1L = 0xDC;
  7086  08E4  30DC               	movlw	220
  7087  08E5  008E               	movwf	14	;volatile
  7088                           
  7089                           ;newmain.c: 54:         TMR1H = 0X0B;
  7090  08E6  300B               	movlw	11
  7091  08E7  008F               	movwf	15	;volatile
  7092  08E8  0064               	clrwdt	;# 
  7093                           
  7094                           ;newmain.c: 56:         conta++;
  7095  08E9  3001               	movlw	1
  7096  08EA  07FC               	addwf	_conta,f
  7097  08EB  1803               	skipnc
  7098  08EC  0AFD               	incf	_conta+1,f
  7099  08ED  3000               	movlw	0
  7100  08EE  07FD               	addwf	_conta+1,f
  7101  08EF                     i1l2617:
  7102                           
  7103                           ;newmain.c: 57:         if(conta == 8){
  7104  08EF  3008               	movlw	8
  7105  08F0  067C               	xorwf	_conta,w
  7106  08F1  047D               	iorwf	_conta+1,w
  7107  08F2  1D03               	btfss	3,2
  7108  08F3  28F5               	goto	u343_21
  7109  08F4  28F6               	goto	u343_20
  7110  08F5                     u343_21:
  7111  08F5  2934               	goto	i1l128
  7112  08F6                     u343_20:
  7113  08F6                     i1l2619:
  7114                           
  7115                           ;newmain.c: 58:             T1CONbits.TMR1ON = 0;
  7116  08F6  1283               	bcf	3,5	;RP0=0, select bank0
  7117  08F7  1303               	bcf	3,6	;RP1=0, select bank0
  7118  08F8  1010               	bcf	16,0	;volatile
  7119  08F9                     i1l2621:
  7120                           
  7121                           ;newmain.c: 59:             conta = 0;
  7122  08F9  01FC               	clrf	_conta
  7123  08FA  01FD               	clrf	_conta+1
  7124  08FB                     i1l2623:
  7125                           
  7126                           ;newmain.c: 60:             aux_timer = 1;
  7127  08FB  3001               	movlw	1
  7128  08FC  00EA               	movwf	_aux_timer
  7129  08FD  3000               	movlw	0
  7130  08FE  00EB               	movwf	_aux_timer+1
  7131  08FF  2934               	goto	i1l128
  7132  0900                     i1l124:	
  7133                           ;newmain.c: 63:     else if (INTCONbits.INTF)
  7134                           
  7135  0900  1C8B               	btfss	11,1	;volatile
  7136  0901  2903               	goto	u344_21
  7137  0902  2904               	goto	u344_20
  7138  0903                     u344_21:
  7139  0903  2934               	goto	i1l128
  7140  0904                     u344_20:
  7141  0904                     i1l2625:
  7142                           
  7143                           ;newmain.c: 64:     {;newmain.c: 65:         INTCONbits.INTF = 0;
  7144  0904  108B               	bcf	11,1	;volatile
  7145                           
  7146                           ;newmain.c: 66:         PORTDbits.RD7 = 0;
  7147  0905  1388               	bcf	8,7	;volatile
  7148  0906  0064               	clrwdt	;# 
  7149  0907                     i1l2627:
  7150                           
  7151                           ;newmain.c: 68:         Lcd_Clear();
  7152  0907  160A  118A  24EA  120A  158A  	fcall	i1_Lcd_Clear
  7153                           
  7154                           ;newmain.c: 69:         Lcd_Set_Cursor(1,1);
  7155  090C  01F4               	clrf	i1Lcd_Set_Cursor@b
  7156  090D  0AF4               	incf	i1Lcd_Set_Cursor@b,f
  7157  090E  3001               	movlw	1
  7158  090F  120A  158A  208D  120A  158A  	fcall	i1_Lcd_Set_Cursor
  7159  0914                     i1l2629:
  7160                           
  7161                           ;newmain.c: 70:         Lcd_Write_String("FUNCIONAMENTO");
  7162  0914  3058               	movlw	(low ((STR_1-__stringbase)| (0+32768)))& (0+255)
  7163  0915  00F5               	movwf	i1Lcd_Write_String@a
  7164  0916  3080               	movlw	128
  7165  0917  00F6               	movwf	i1Lcd_Write_String@a+1
  7166  0918  160A  118A  262C  120A  158A  	fcall	i1_Lcd_Write_String
  7167  091D                     i1l2631:
  7168                           
  7169                           ;newmain.c: 71:         Lcd_Set_Cursor(2,1);
  7170  091D  01F4               	clrf	i1Lcd_Set_Cursor@b
  7171  091E  0AF4               	incf	i1Lcd_Set_Cursor@b,f
  7172  091F  3002               	movlw	2
  7173  0920  120A  158A  208D  120A  158A  	fcall	i1_Lcd_Set_Cursor
  7174                           
  7175                           ;newmain.c: 72:         Lcd_Write_String("INTERROMPIDO");
  7176  0925  3066               	movlw	(low ((STR_2-__stringbase)| (0+32768)))& (0+255)
  7177  0926  00F5               	movwf	i1Lcd_Write_String@a
  7178  0927  3080               	movlw	128
  7179  0928  00F6               	movwf	i1Lcd_Write_String@a+1
  7180  0929  160A  118A  262C  120A  158A  	fcall	i1_Lcd_Write_String
  7181  092E                     i1l2633:
  7182                           
  7183                           ;newmain.c: 73:         interrupcao = 1;
  7184  092E  3001               	movlw	1
  7185  092F  1283               	bcf	3,5	;RP0=0, select bank0
  7186  0930  1303               	bcf	3,6	;RP1=0, select bank0
  7187  0931  00E8               	movwf	_interrupcao
  7188  0932  3000               	movlw	0
  7189  0933  00E9               	movwf	_interrupcao+1
  7190  0934                     i1l128:
  7191  0934  1283               	bcf	3,5	;RP0=0, select bank0
  7192  0935  1303               	bcf	3,6	;RP1=0, select bank0
  7193  0936  0823               	movf	??_tes+3,w
  7194  0937  00FF               	movwf	btemp+1
  7195  0938  0822               	movf	??_tes+2,w
  7196  0939  008A               	movwf	10
  7197  093A  0821               	movf	??_tes+1,w
  7198  093B  0084               	movwf	4
  7199  093C  0E20               	swapf	??_tes,w
  7200  093D  0083               	movwf	3
  7201  093E  0EFE               	swapf	btemp,f
  7202  093F  0E7E               	swapf	btemp,w
  7203  0940  0009               	retfie
  7204  0941                     __end_of_tes:
  7205                           
  7206                           	psect	intentry
  7207  0004                     __pintentry:	
  7208                           ;incstack = 0
  7209                           ; Regs used in _tes: [wreg-fsr0h+status,2+status,0+btemp+1+pclath+cstack]
  7210                           
  7211  0004                     interrupt_function:
  7212  007E                     saved_w	set	btemp
  7213  0004  00FE               	movwf	btemp
  7214  0005  0E03               	swapf	3,w
  7215  0006  1283               	bcf	3,5	;RP0=0, select bank0
  7216  0007  1303               	bcf	3,6	;RP1=0, select bank0
  7217  0008  00A0               	movwf	??_tes
  7218  0009  0804               	movf	4,w
  7219  000A  00A1               	movwf	??_tes+1
  7220  000B  080A               	movf	10,w
  7221  000C  00A2               	movwf	??_tes+2
  7222  000D  087F               	movf	btemp+1,w
  7223  000E  00A3               	movwf	??_tes+3
  7224  000F  120A  158A  28DF   	ljmp	_tes
  7225                           
  7226                           	psect	text22
  7227  162C                     __ptext22:	
  7228 ;; *************** function i1_Lcd_Write_String *****************
  7229 ;; Defined at:
  7230 ;;		line 96 in file "./LCD.h"
  7231 ;; Parameters:    Size  Location     Type
  7232 ;;  a               2    5[COMMON] PTR unsigned char 
  7233 ;;		 -> STR_12(9), STR_11(17), STR_10(16), STR_9(14), 
  7234 ;;		 -> STR_8(16), STR_7(14), Lcd_Padrao@buffer(20), STR_2(13), 
  7235 ;;		 -> STR_1(14), 
  7236 ;; Auto vars:     Size  Location     Type
  7237 ;;  i               2   10[COMMON] int 
  7238 ;; Return value:  Size  Location     Type
  7239 ;;                  1    wreg      void 
  7240 ;; Registers used:
  7241 ;;		wreg, fsr0l, fsr0h, status,2, status,0, btemp+1, pclath, cstack
  7242 ;; Tracked objects:
  7243 ;;		On entry : 0/0
  7244 ;;		On exit  : 0/0
  7245 ;;		Unchanged: 0/0
  7246 ;; Data sizes:     COMMON   BANK0   BANK1   BANK3   BANK2
  7247 ;;      Params:         2       0       0       0       0
  7248 ;;      Locals:         2       0       0       0       0
  7249 ;;      Temps:          3       0       0       0       0
  7250 ;;      Totals:         7       0       0       0       0
  7251 ;;Total ram usage:        7 bytes
  7252 ;; Hardware stack levels used: 1
  7253 ;; Hardware stack levels required when called: 2
  7254 ;; This function calls:
  7255 ;;		i1_Lcd_Write_Char
  7256 ;; This function is called by:
  7257 ;;		_tes
  7258 ;; This function uses a non-reentrant model
  7259 ;;
  7260                           
  7261  162C                     i1_Lcd_Write_String:	
  7262                           ;psect for function i1_Lcd_Write_String
  7263                           
  7264  162C                     i1l2599:	
  7265                           ;incstack = 0
  7266 ;; using string table level
  7267                           ; Regs used in i1_Lcd_Write_String: [wreg-fsr0h+status,2+status,0+btemp+1+pclath+cstack]
  7268                           
  7269                           
  7270                           ;./LCD.h: 96: void Lcd_Write_String(char *a);./LCD.h: 97: {;./LCD.h: 98:  int i;;./LCD.h
      +                          : 99:  for(i=0;a[i]!='\0';i++)
  7271  162C  01FA               	clrf	i1Lcd_Write_String@i
  7272  162D  01FB               	clrf	i1Lcd_Write_String@i+1
  7273  162E  2E51               	goto	i1l2605
  7274  162F                     i1l2601:
  7275                           
  7276                           ;./LCD.h: 100:     Lcd_Write_Char(a[i]);
  7277  162F  087A               	movf	i1Lcd_Write_String@i,w
  7278  1630  0775               	addwf	i1Lcd_Write_String@a,w
  7279  1631  00F8               	movwf	??i1_Lcd_Write_String+1
  7280  1632  0876               	movf	i1Lcd_Write_String@a+1,w
  7281  1633  00F7               	movwf	??i1_Lcd_Write_String
  7282  1634  1803               	skipnc
  7283  1635  0AF7               	incf	??i1_Lcd_Write_String,f
  7284  1636  1FFA               	btfss	i1Lcd_Write_String@i,7
  7285  1637  2E39               	goto	u339_20
  7286  1638  03F7               	decf	??i1_Lcd_Write_String,f
  7287  1639                     u339_20:
  7288  1639  0877               	movf	??i1_Lcd_Write_String,w
  7289  163A  00F9               	movwf	??i1_Lcd_Write_String+2
  7290  163B  0879               	movf	??i1_Lcd_Write_String+2,w
  7291  163C  1283               	bcf	3,5	;RP0=0, select bank0
  7292  163D  1303               	bcf	3,6	;RP1=0, select bank0
  7293  163E  00FF               	movwf	btemp+1
  7294  163F  0878               	movf	??i1_Lcd_Write_String+1,w
  7295  1640  0084               	movwf	4
  7296  1641  120A  158A  2000  160A  118A  	fcall	stringtab
  7297  1646  160A  118A  257C  160A  118A  	fcall	i1_Lcd_Write_Char
  7298  164B                     i1l2603:
  7299  164B  3001               	movlw	1
  7300  164C  07FA               	addwf	i1Lcd_Write_String@i,f
  7301  164D  1803               	skipnc
  7302  164E  0AFB               	incf	i1Lcd_Write_String@i+1,f
  7303  164F  3000               	movlw	0
  7304  1650  07FB               	addwf	i1Lcd_Write_String@i+1,f
  7305  1651                     i1l2605:
  7306  1651  087A               	movf	i1Lcd_Write_String@i,w
  7307  1652  0775               	addwf	i1Lcd_Write_String@a,w
  7308  1653  00F8               	movwf	??i1_Lcd_Write_String+1
  7309  1654  0876               	movf	i1Lcd_Write_String@a+1,w
  7310  1655  00F7               	movwf	??i1_Lcd_Write_String
  7311  1656  1803               	skipnc
  7312  1657  0AF7               	incf	??i1_Lcd_Write_String,f
  7313  1658  1FFA               	btfss	i1Lcd_Write_String@i,7
  7314  1659  2E5B               	goto	u340_20
  7315  165A  03F7               	decf	??i1_Lcd_Write_String,f
  7316  165B                     u340_20:
  7317  165B  0877               	movf	??i1_Lcd_Write_String,w
  7318  165C  00F9               	movwf	??i1_Lcd_Write_String+2
  7319  165D  0879               	movf	??i1_Lcd_Write_String+2,w
  7320  165E  1283               	bcf	3,5	;RP0=0, select bank0
  7321  165F  1303               	bcf	3,6	;RP1=0, select bank0
  7322  1660  00FF               	movwf	btemp+1
  7323  1661  0878               	movf	??i1_Lcd_Write_String+1,w
  7324  1662  0084               	movwf	4
  7325  1663  120A  158A  2000  160A  118A  	fcall	stringtab
  7326  1668  3A00               	xorlw	0
  7327  1669  1D03               	skipz
  7328  166A  2E6C               	goto	u341_21
  7329  166B  2E6D               	goto	u341_20
  7330  166C                     u341_21:
  7331  166C  2E2F               	goto	i1l2601
  7332  166D                     u341_20:
  7333  166D                     i1l97:
  7334  166D  0008               	return
  7335  166E                     __end_ofi1_Lcd_Write_String:
  7336                           
  7337                           	psect	text23
  7338  157C                     __ptext23:	
  7339 ;; *************** function i1_Lcd_Write_Char *****************
  7340 ;; Defined at:
  7341 ;;		line 80 in file "./LCD.h"
  7342 ;; Parameters:    Size  Location     Type
  7343 ;;  a               1    wreg     unsigned char 
  7344 ;; Auto vars:     Size  Location     Type
  7345 ;;  a               1    4[COMMON] unsigned char 
  7346 ;;  y               1    3[COMMON] unsigned char 
  7347 ;;  temp            1    2[COMMON] unsigned char 
  7348 ;; Return value:  Size  Location     Type
  7349 ;;                  1    wreg      void 
  7350 ;; Registers used:
  7351 ;;		wreg, status,2, status,0, pclath, cstack
  7352 ;; Tracked objects:
  7353 ;;		On entry : 0/0
  7354 ;;		On exit  : 0/0
  7355 ;;		Unchanged: 0/0
  7356 ;; Data sizes:     COMMON   BANK0   BANK1   BANK3   BANK2
  7357 ;;      Params:         0       0       0       0       0
  7358 ;;      Locals:         3       0       0       0       0
  7359 ;;      Temps:          1       0       0       0       0
  7360 ;;      Totals:         4       0       0       0       0
  7361 ;;Total ram usage:        4 bytes
  7362 ;; Hardware stack levels used: 1
  7363 ;; Hardware stack levels required when called: 1
  7364 ;; This function calls:
  7365 ;;		i1_Lcd_Port
  7366 ;; This function is called by:
  7367 ;;		i1_Lcd_Write_String
  7368 ;; This function uses a non-reentrant model
  7369 ;;
  7370                           
  7371  157C                     i1_Lcd_Write_Char:	
  7372                           ;psect for function i1_Lcd_Write_Char
  7373                           
  7374                           
  7375                           ;incstack = 0
  7376                           ; Regs used in i1_Lcd_Write_Char: [wreg+status,2+status,0+pclath+cstack]
  7377                           ;i1Lcd_Write_Char@a stored from wreg
  7378  157C  00F4               	movwf	i1Lcd_Write_Char@a
  7379  157D                     i1l2479:
  7380                           
  7381                           ;./LCD.h: 80: void Lcd_Write_Char(char a);./LCD.h: 81: {;./LCD.h: 82:    char temp,y;;./
      +                          LCD.h: 83:    temp = a&0x0F;
  7382  157D  0874               	movf	i1Lcd_Write_Char@a,w
  7383  157E  390F               	andlw	15
  7384  157F  00F1               	movwf	??i1_Lcd_Write_Char
  7385  1580  0871               	movf	??i1_Lcd_Write_Char,w
  7386  1581  00F2               	movwf	i1Lcd_Write_Char@temp
  7387                           
  7388                           ;./LCD.h: 84:    y = a&0xF0;
  7389  1582  0874               	movf	i1Lcd_Write_Char@a,w
  7390  1583  39F0               	andlw	240
  7391  1584  00F1               	movwf	??i1_Lcd_Write_Char
  7392  1585  0871               	movf	??i1_Lcd_Write_Char,w
  7393  1586  00F3               	movwf	i1Lcd_Write_Char@y
  7394  1587                     i1l2481:
  7395                           
  7396                           ;./LCD.h: 85:    RC0 = 1;
  7397  1587  1283               	bcf	3,5	;RP0=0, select bank0
  7398  1588  1303               	bcf	3,6	;RP1=0, select bank0
  7399  1589  1407               	bsf	7,0	;volatile
  7400  158A                     i1l2483:
  7401                           
  7402                           ;./LCD.h: 86:    Lcd_Port(y>>4);
  7403  158A  0873               	movf	i1Lcd_Write_Char@y,w
  7404  158B  00F1               	movwf	??i1_Lcd_Write_Char
  7405  158C  3004               	movlw	4
  7406  158D                     u322_25:
  7407  158D  1003               	clrc
  7408  158E  0CF1               	rrf	??i1_Lcd_Write_Char,f
  7409  158F  3EFF               	addlw	-1
  7410  1590  1D03               	skipz
  7411  1591  2D8D               	goto	u322_25
  7412  1592  0871               	movf	??i1_Lcd_Write_Char,w
  7413  1593  160A  118A  255A  160A  118A  	fcall	i1_Lcd_Port
  7414  1598                     i1l2485:
  7415                           
  7416                           ;./LCD.h: 87:    RC2 = 1;
  7417  1598  1283               	bcf	3,5	;RP0=0, select bank0
  7418  1599  1303               	bcf	3,6	;RP1=0, select bank0
  7419  159A  1507               	bsf	7,2	;volatile
  7420  159B                     i1l2487:
  7421                           
  7422                           ;./LCD.h: 88:    _delay((unsigned long)((40)*(4000000/4000000.0)));
  7423  159B  300D               	movlw	13
  7424  159C  00F1               	movwf	??i1_Lcd_Write_Char
  7425  159D                     u417_27:
  7426  159D  0BF1               	decfsz	??i1_Lcd_Write_Char,f
  7427  159E  2D9D               	goto	u417_27
  7428  159F                     i1l2489:
  7429                           
  7430                           ;./LCD.h: 89:    RC2 = 0;
  7431  159F  1283               	bcf	3,5	;RP0=0, select bank0
  7432  15A0  1303               	bcf	3,6	;RP1=0, select bank0
  7433  15A1  1107               	bcf	7,2	;volatile
  7434  15A2                     i1l2491:
  7435                           
  7436                           ;./LCD.h: 90:    Lcd_Port(temp);
  7437  15A2  0872               	movf	i1Lcd_Write_Char@temp,w
  7438  15A3  160A  118A  255A  160A  118A  	fcall	i1_Lcd_Port
  7439  15A8                     i1l2493:
  7440                           
  7441                           ;./LCD.h: 91:    RC2 = 1;
  7442  15A8  1283               	bcf	3,5	;RP0=0, select bank0
  7443  15A9  1303               	bcf	3,6	;RP1=0, select bank0
  7444  15AA  1507               	bsf	7,2	;volatile
  7445  15AB                     i1l2495:
  7446                           
  7447                           ;./LCD.h: 92:    _delay((unsigned long)((40)*(4000000/4000000.0)));
  7448  15AB  300D               	movlw	13
  7449  15AC  00F1               	movwf	??i1_Lcd_Write_Char
  7450  15AD                     u418_27:
  7451  15AD  0BF1               	decfsz	??i1_Lcd_Write_Char,f
  7452  15AE  2DAD               	goto	u418_27
  7453  15AF                     i1l2497:
  7454                           
  7455                           ;./LCD.h: 93:    RC2 = 0;
  7456  15AF  1283               	bcf	3,5	;RP0=0, select bank0
  7457  15B0  1303               	bcf	3,6	;RP1=0, select bank0
  7458  15B1  1107               	bcf	7,2	;volatile
  7459  15B2                     i1l91:
  7460  15B2  0008               	return
  7461  15B3                     __end_ofi1_Lcd_Write_Char:
  7462                           
  7463                           	psect	text24
  7464  088D                     __ptext24:	
  7465 ;; *************** function i1_Lcd_Set_Cursor *****************
  7466 ;; Defined at:
  7467 ;;		line 40 in file "./LCD.h"
  7468 ;; Parameters:    Size  Location     Type
  7469 ;;  a               1    wreg     unsigned char 
  7470 ;;  b               1    4[COMMON] unsigned char 
  7471 ;; Auto vars:     Size  Location     Type
  7472 ;;  a               1    7[COMMON] unsigned char 
  7473 ;;  temp            1   10[COMMON] unsigned char 
  7474 ;;  y               1    9[COMMON] unsigned char 
  7475 ;;  z               1    8[COMMON] unsigned char 
  7476 ;; Return value:  Size  Location     Type
  7477 ;;                  1    wreg      void 
  7478 ;; Registers used:
  7479 ;;		wreg, status,2, status,0, pclath, cstack
  7480 ;; Tracked objects:
  7481 ;;		On entry : 0/0
  7482 ;;		On exit  : 0/0
  7483 ;;		Unchanged: 0/0
  7484 ;; Data sizes:     COMMON   BANK0   BANK1   BANK3   BANK2
  7485 ;;      Params:         1       0       0       0       0
  7486 ;;      Locals:         4       0       0       0       0
  7487 ;;      Temps:          2       0       0       0       0
  7488 ;;      Totals:         7       0       0       0       0
  7489 ;;Total ram usage:        7 bytes
  7490 ;; Hardware stack levels used: 1
  7491 ;; Hardware stack levels required when called: 2
  7492 ;; This function calls:
  7493 ;;		i1_Lcd_Cmd
  7494 ;; This function is called by:
  7495 ;;		_tes
  7496 ;; This function uses a non-reentrant model
  7497 ;;
  7498                           
  7499  088D                     i1_Lcd_Set_Cursor:	
  7500                           ;psect for function i1_Lcd_Set_Cursor
  7501                           
  7502                           
  7503                           ;incstack = 0
  7504                           ; Regs used in i1_Lcd_Set_Cursor: [wreg+status,2+status,0+pclath+cstack]
  7505                           ;i1Lcd_Set_Cursor@a stored from wreg
  7506  088D  00F7               	movwf	i1Lcd_Set_Cursor@a
  7507  088E                     i1l2579:
  7508                           
  7509                           ;./LCD.h: 40: void Lcd_Set_Cursor(char a, char b);./LCD.h: 41: {;./LCD.h: 42:  char temp
      +                          ,z,y;;./LCD.h: 43:  if(a == 1)
  7510  088E  0377               	decf	i1Lcd_Set_Cursor@a,w
  7511  088F  1D03               	btfss	3,2
  7512  0890  2892               	goto	u335_21
  7513  0891  2893               	goto	u335_20
  7514  0892                     u335_21:
  7515  0892  28B6               	goto	i1l2589
  7516  0893                     u335_20:
  7517  0893                     i1l2581:
  7518                           
  7519                           ;./LCD.h: 44:  {;./LCD.h: 45:    temp = 0x80 + b - 1;
  7520  0893  0874               	movf	i1Lcd_Set_Cursor@b,w
  7521  0894  3E7F               	addlw	127
  7522  0895  00F5               	movwf	??i1_Lcd_Set_Cursor
  7523  0896  0875               	movf	??i1_Lcd_Set_Cursor,w
  7524  0897  00FA               	movwf	i1Lcd_Set_Cursor@temp
  7525                           
  7526                           ;./LCD.h: 46:   z = temp>>4;
  7527  0898  087A               	movf	i1Lcd_Set_Cursor@temp,w
  7528  0899  00F5               	movwf	??i1_Lcd_Set_Cursor
  7529  089A  3004               	movlw	4
  7530  089B                     u336_25:
  7531  089B  1003               	clrc
  7532  089C  0CF5               	rrf	??i1_Lcd_Set_Cursor,f
  7533  089D  3EFF               	addlw	-1
  7534  089E  1D03               	skipz
  7535  089F  289B               	goto	u336_25
  7536  08A0  0875               	movf	??i1_Lcd_Set_Cursor,w
  7537  08A1  00F6               	movwf	??i1_Lcd_Set_Cursor+1
  7538  08A2  0876               	movf	??i1_Lcd_Set_Cursor+1,w
  7539  08A3  00F8               	movwf	i1Lcd_Set_Cursor@z
  7540  08A4                     i1l2583:
  7541                           
  7542                           ;./LCD.h: 47:   y = temp & 0x0F;
  7543  08A4  087A               	movf	i1Lcd_Set_Cursor@temp,w
  7544  08A5  390F               	andlw	15
  7545  08A6  00F5               	movwf	??i1_Lcd_Set_Cursor
  7546  08A7  0875               	movf	??i1_Lcd_Set_Cursor,w
  7547  08A8  00F9               	movwf	i1Lcd_Set_Cursor@y
  7548  08A9                     i1l2585:
  7549                           
  7550                           ;./LCD.h: 48:   Lcd_Cmd(z);
  7551  08A9  0878               	movf	i1Lcd_Set_Cursor@z,w
  7552  08AA  160A  118A  2504  120A  158A  	fcall	i1_Lcd_Cmd
  7553  08AF                     i1l2587:
  7554                           
  7555                           ;./LCD.h: 49:   Lcd_Cmd(y);
  7556  08AF  0879               	movf	i1Lcd_Set_Cursor@y,w
  7557  08B0  160A  118A  2504  120A  158A  	fcall	i1_Lcd_Cmd
  7558                           
  7559                           ;./LCD.h: 50:  }
  7560  08B5  28DE               	goto	i1l85
  7561  08B6                     i1l2589:
  7562  08B6  3002               	movlw	2
  7563  08B7  0677               	xorwf	i1Lcd_Set_Cursor@a,w
  7564  08B8  1D03               	btfss	3,2
  7565  08B9  28BB               	goto	u337_21
  7566  08BA  28BC               	goto	u337_20
  7567  08BB                     u337_21:
  7568  08BB  28DE               	goto	i1l85
  7569  08BC                     u337_20:
  7570  08BC                     i1l2591:
  7571                           
  7572                           ;./LCD.h: 52:  {;./LCD.h: 53:   temp = 0xC0 + b - 1;
  7573  08BC  0874               	movf	i1Lcd_Set_Cursor@b,w
  7574  08BD  3EBF               	addlw	191
  7575  08BE  00F5               	movwf	??i1_Lcd_Set_Cursor
  7576  08BF  0875               	movf	??i1_Lcd_Set_Cursor,w
  7577  08C0  00FA               	movwf	i1Lcd_Set_Cursor@temp
  7578                           
  7579                           ;./LCD.h: 54:   z = temp>>4;
  7580  08C1  087A               	movf	i1Lcd_Set_Cursor@temp,w
  7581  08C2  00F5               	movwf	??i1_Lcd_Set_Cursor
  7582  08C3  3004               	movlw	4
  7583  08C4                     u338_25:
  7584  08C4  1003               	clrc
  7585  08C5  0CF5               	rrf	??i1_Lcd_Set_Cursor,f
  7586  08C6  3EFF               	addlw	-1
  7587  08C7  1D03               	skipz
  7588  08C8  28C4               	goto	u338_25
  7589  08C9  0875               	movf	??i1_Lcd_Set_Cursor,w
  7590  08CA  00F6               	movwf	??i1_Lcd_Set_Cursor+1
  7591  08CB  0876               	movf	??i1_Lcd_Set_Cursor+1,w
  7592  08CC  00F8               	movwf	i1Lcd_Set_Cursor@z
  7593  08CD                     i1l2593:
  7594                           
  7595                           ;./LCD.h: 55:   y = temp & 0x0F;
  7596  08CD  087A               	movf	i1Lcd_Set_Cursor@temp,w
  7597  08CE  390F               	andlw	15
  7598  08CF  00F5               	movwf	??i1_Lcd_Set_Cursor
  7599  08D0  0875               	movf	??i1_Lcd_Set_Cursor,w
  7600  08D1  00F9               	movwf	i1Lcd_Set_Cursor@y
  7601  08D2                     i1l2595:
  7602                           
  7603                           ;./LCD.h: 56:   Lcd_Cmd(z);
  7604  08D2  0878               	movf	i1Lcd_Set_Cursor@z,w
  7605  08D3  160A  118A  2504  120A  158A  	fcall	i1_Lcd_Cmd
  7606  08D8                     i1l2597:
  7607                           
  7608                           ;./LCD.h: 57:   Lcd_Cmd(y);
  7609  08D8  0879               	movf	i1Lcd_Set_Cursor@y,w
  7610  08D9  160A  118A  2504  120A  158A  	fcall	i1_Lcd_Cmd
  7611  08DE                     i1l85:
  7612  08DE  0008               	return
  7613  08DF                     __end_ofi1_Lcd_Set_Cursor:
  7614                           
  7615                           	psect	text25
  7616  14EA                     __ptext25:	
  7617 ;; *************** function i1_Lcd_Clear *****************
  7618 ;; Defined at:
  7619 ;;		line 34 in file "./LCD.h"
  7620 ;; Parameters:    Size  Location     Type
  7621 ;;		None
  7622 ;; Auto vars:     Size  Location     Type
  7623 ;;		None
  7624 ;; Return value:  Size  Location     Type
  7625 ;;                  1    wreg      void 
  7626 ;; Registers used:
  7627 ;;		wreg, status,2, status,0, pclath, cstack
  7628 ;; Tracked objects:
  7629 ;;		On entry : 0/0
  7630 ;;		On exit  : 0/0
  7631 ;;		Unchanged: 0/0
  7632 ;; Data sizes:     COMMON   BANK0   BANK1   BANK3   BANK2
  7633 ;;      Params:         0       0       0       0       0
  7634 ;;      Locals:         0       0       0       0       0
  7635 ;;      Temps:          0       0       0       0       0
  7636 ;;      Totals:         0       0       0       0       0
  7637 ;;Total ram usage:        0 bytes
  7638 ;; Hardware stack levels used: 1
  7639 ;; Hardware stack levels required when called: 2
  7640 ;; This function calls:
  7641 ;;		i1_Lcd_Cmd
  7642 ;; This function is called by:
  7643 ;;		_tes
  7644 ;; This function uses a non-reentrant model
  7645 ;;
  7646                           
  7647  14EA                     i1_Lcd_Clear:	
  7648                           ;psect for function i1_Lcd_Clear
  7649                           
  7650  14EA                     i1l2577:	
  7651                           ;incstack = 0
  7652                           ; Regs used in i1_Lcd_Clear: [wreg+status,2+status,0+pclath+cstack]
  7653                           
  7654                           
  7655                           ;./LCD.h: 36:  Lcd_Cmd(0);
  7656  14EA  3000               	movlw	0
  7657  14EB  160A  118A  2504  160A  118A  	fcall	i1_Lcd_Cmd
  7658                           
  7659                           ;./LCD.h: 37:  Lcd_Cmd(1);
  7660  14F0  3001               	movlw	1
  7661  14F1  160A  118A  2504  160A  118A  	fcall	i1_Lcd_Cmd
  7662  14F6                     i1l79:
  7663  14F6  0008               	return
  7664  14F7                     __end_ofi1_Lcd_Clear:
  7665                           
  7666                           	psect	text26
  7667  1504                     __ptext26:	
  7668 ;; *************** function i1_Lcd_Cmd *****************
  7669 ;; Defined at:
  7670 ;;		line 25 in file "./LCD.h"
  7671 ;; Parameters:    Size  Location     Type
  7672 ;;  a               1    wreg     unsigned char 
  7673 ;; Auto vars:     Size  Location     Type
  7674 ;;  a               1    3[COMMON] unsigned char 
  7675 ;; Return value:  Size  Location     Type
  7676 ;;                  1    wreg      void 
  7677 ;; Registers used:
  7678 ;;		wreg, status,2, status,0, pclath, cstack
  7679 ;; Tracked objects:
  7680 ;;		On entry : 0/0
  7681 ;;		On exit  : 0/0
  7682 ;;		Unchanged: 0/0
  7683 ;; Data sizes:     COMMON   BANK0   BANK1   BANK3   BANK2
  7684 ;;      Params:         0       0       0       0       0
  7685 ;;      Locals:         1       0       0       0       0
  7686 ;;      Temps:          2       0       0       0       0
  7687 ;;      Totals:         3       0       0       0       0
  7688 ;;Total ram usage:        3 bytes
  7689 ;; Hardware stack levels used: 1
  7690 ;; Hardware stack levels required when called: 1
  7691 ;; This function calls:
  7692 ;;		i1_Lcd_Port
  7693 ;; This function is called by:
  7694 ;;		i1_Lcd_Clear
  7695 ;;		i1_Lcd_Set_Cursor
  7696 ;; This function uses a non-reentrant model
  7697 ;;
  7698                           
  7699  1504                     i1_Lcd_Cmd:	
  7700                           ;psect for function i1_Lcd_Cmd
  7701                           
  7702                           
  7703                           ;incstack = 0
  7704                           ; Regs used in i1_Lcd_Cmd: [wreg+status,2+status,0+pclath+cstack]
  7705                           ;i1Lcd_Cmd@a stored from wreg
  7706  1504  00F3               	movwf	i1Lcd_Cmd@a
  7707  1505                     i1l2469:
  7708                           
  7709                           ;./LCD.h: 25: void Lcd_Cmd(char a);./LCD.h: 26: {;./LCD.h: 27:  RC0 = 0;
  7710  1505  1283               	bcf	3,5	;RP0=0, select bank0
  7711  1506  1303               	bcf	3,6	;RP1=0, select bank0
  7712  1507  1007               	bcf	7,0	;volatile
  7713  1508                     i1l2471:
  7714                           
  7715                           ;./LCD.h: 28:  Lcd_Port(a);
  7716  1508  0873               	movf	i1Lcd_Cmd@a,w
  7717  1509  160A  118A  255A  160A  118A  	fcall	i1_Lcd_Port
  7718  150E                     i1l2473:
  7719                           
  7720                           ;./LCD.h: 29:  RC2 = 1;
  7721  150E  1283               	bcf	3,5	;RP0=0, select bank0
  7722  150F  1303               	bcf	3,6	;RP1=0, select bank0
  7723  1510  1507               	bsf	7,2	;volatile
  7724  1511                     i1l2475:
  7725                           
  7726                           ;./LCD.h: 30:         _delay((unsigned long)((4)*(4000000/4000.0)));
  7727  1511  3006               	movlw	6
  7728  1512  00F2               	movwf	??i1_Lcd_Cmd+1
  7729  1513  3030               	movlw	48
  7730  1514  00F1               	movwf	??i1_Lcd_Cmd
  7731  1515                     u419_27:
  7732  1515  0BF1               	decfsz	??i1_Lcd_Cmd,f
  7733  1516  2D15               	goto	u419_27
  7734  1517  0BF2               	decfsz	??i1_Lcd_Cmd+1,f
  7735  1518  2D15               	goto	u419_27
  7736  1519  0000               	nop
  7737  151A                     i1l2477:
  7738                           
  7739                           ;./LCD.h: 31:         RC2 = 0;
  7740  151A  1283               	bcf	3,5	;RP0=0, select bank0
  7741  151B  1303               	bcf	3,6	;RP1=0, select bank0
  7742  151C  1107               	bcf	7,2	;volatile
  7743  151D                     i1l76:
  7744  151D  0008               	return
  7745  151E                     __end_ofi1_Lcd_Cmd:
  7746                           
  7747                           	psect	text27
  7748  155A                     __ptext27:	
  7749 ;; *************** function i1_Lcd_Port *****************
  7750 ;; Defined at:
  7751 ;;		line 3 in file "./LCD.h"
  7752 ;; Parameters:    Size  Location     Type
  7753 ;;  a               1    wreg     unsigned char 
  7754 ;; Auto vars:     Size  Location     Type
  7755 ;;  a               1    0[COMMON] unsigned char 
  7756 ;; Return value:  Size  Location     Type
  7757 ;;                  1    wreg      void 
  7758 ;; Registers used:
  7759 ;;		wreg
  7760 ;; Tracked objects:
  7761 ;;		On entry : 0/0
  7762 ;;		On exit  : 0/0
  7763 ;;		Unchanged: 0/0
  7764 ;; Data sizes:     COMMON   BANK0   BANK1   BANK3   BANK2
  7765 ;;      Params:         0       0       0       0       0
  7766 ;;      Locals:         1       0       0       0       0
  7767 ;;      Temps:          0       0       0       0       0
  7768 ;;      Totals:         1       0       0       0       0
  7769 ;;Total ram usage:        1 bytes
  7770 ;; Hardware stack levels used: 1
  7771 ;; This function calls:
  7772 ;;		Nothing
  7773 ;; This function is called by:
  7774 ;;		i1_Lcd_Cmd
  7775 ;;		i1_Lcd_Write_Char
  7776 ;; This function uses a non-reentrant model
  7777 ;;
  7778                           
  7779  155A                     i1_Lcd_Port:	
  7780                           ;psect for function i1_Lcd_Port
  7781                           
  7782                           
  7783                           ;incstack = 0
  7784                           ; Regs used in i1_Lcd_Port: [wreg]
  7785                           ;i1Lcd_Port@a stored from wreg
  7786  155A  00F0               	movwf	i1Lcd_Port@a
  7787  155B                     i1l1969:
  7788                           
  7789                           ;./LCD.h: 3: void Lcd_Port(char a);./LCD.h: 4: {;./LCD.h: 5:  if(a & 1)
  7790  155B  1C70               	btfss	i1Lcd_Port@a,0
  7791  155C  2D5E               	goto	u217_21
  7792  155D  2D5F               	goto	u217_20
  7793  155E                     u217_21:
  7794  155E  2D63               	goto	i1l65
  7795  155F                     u217_20:
  7796  155F                     i1l1971:
  7797                           
  7798                           ;./LCD.h: 6:   RC4 = 1;
  7799  155F  1283               	bcf	3,5	;RP0=0, select bank0
  7800  1560  1303               	bcf	3,6	;RP1=0, select bank0
  7801  1561  1607               	bsf	7,4	;volatile
  7802  1562  2D66               	goto	i1l66
  7803  1563                     i1l65:	
  7804                           ;./LCD.h: 7:  else
  7805                           
  7806                           
  7807                           ;./LCD.h: 8:   RC4 = 0;
  7808  1563  1283               	bcf	3,5	;RP0=0, select bank0
  7809  1564  1303               	bcf	3,6	;RP1=0, select bank0
  7810  1565  1207               	bcf	7,4	;volatile
  7811  1566                     i1l66:
  7812                           
  7813                           ;./LCD.h: 10:  if(a & 2)
  7814  1566  1CF0               	btfss	i1Lcd_Port@a,1
  7815  1567  2D69               	goto	u218_21
  7816  1568  2D6A               	goto	u218_20
  7817  1569                     u218_21:
  7818  1569  2D6C               	goto	i1l67
  7819  156A                     u218_20:
  7820  156A                     i1l1973:
  7821                           
  7822                           ;./LCD.h: 11:   RC5 = 1;
  7823  156A  1687               	bsf	7,5	;volatile
  7824  156B  2D6D               	goto	i1l68
  7825  156C                     i1l67:	
  7826                           ;./LCD.h: 12:  else
  7827                           
  7828                           
  7829                           ;./LCD.h: 13:   RC5 = 0;
  7830  156C  1287               	bcf	7,5	;volatile
  7831  156D                     i1l68:
  7832                           
  7833                           ;./LCD.h: 15:  if(a & 4)
  7834  156D  1D70               	btfss	i1Lcd_Port@a,2
  7835  156E  2D70               	goto	u219_21
  7836  156F  2D71               	goto	u219_20
  7837  1570                     u219_21:
  7838  1570  2D73               	goto	i1l69
  7839  1571                     u219_20:
  7840  1571                     i1l1975:
  7841                           
  7842                           ;./LCD.h: 16:   RC6 = 1;
  7843  1571  1707               	bsf	7,6	;volatile
  7844  1572  2D74               	goto	i1l70
  7845  1573                     i1l69:	
  7846                           ;./LCD.h: 17:  else
  7847                           
  7848                           
  7849                           ;./LCD.h: 18:   RC6 = 0;
  7850  1573  1307               	bcf	7,6	;volatile
  7851  1574                     i1l70:
  7852                           
  7853                           ;./LCD.h: 20:  if(a & 8)
  7854  1574  1DF0               	btfss	i1Lcd_Port@a,3
  7855  1575  2D77               	goto	u220_21
  7856  1576  2D78               	goto	u220_20
  7857  1577                     u220_21:
  7858  1577  2D7A               	goto	i1l71
  7859  1578                     u220_20:
  7860  1578                     i1l1977:
  7861                           
  7862                           ;./LCD.h: 21:   RC7 = 1;
  7863  1578  1787               	bsf	7,7	;volatile
  7864  1579  2D7B               	goto	i1l73
  7865  157A                     i1l71:	
  7866                           ;./LCD.h: 22:  else
  7867                           
  7868                           
  7869                           ;./LCD.h: 23:   RC7 = 0;
  7870  157A  1387               	bcf	7,7	;volatile
  7871  157B                     i1l73:
  7872  157B  0008               	return
  7873  157C                     __end_ofi1_Lcd_Port:
  7874  007E                     btemp	set	126	;btemp
  7875  007E                     wtemp0	set	126
  7876                           
  7877                           	psect	config
  7878                           
  7879                           ;Config register CONFIG @ 0x2007
  7880                           ;	Oscillator Selection bits
  7881                           ;	FOSC = HS, HS oscillator
  7882                           ;	Watchdog Timer Enable bit
  7883                           ;	WDTE = ON, WDT enabled
  7884                           ;	Power-up Timer Enable bit
  7885                           ;	PWRTE = ON, PWRT enabled
  7886                           ;	Brown-out Reset Enable bit
  7887                           ;	BOREN = ON, BOR enabled
  7888                           ;	Low-Voltage (Single-Supply) In-Circuit Serial Programming Enable bit
  7889                           ;	LVP = 0x1, unprogrammed default
  7890                           ;	Data EEPROM Memory Code Protection bit
  7891                           ;	CPD = 0x1, unprogrammed default
  7892                           ;	Flash Program Memory Write Enable bits
  7893                           ;	WRT = 0x3, unprogrammed default
  7894                           ;	In-Circuit Debugger Mode bit
  7895                           ;	DEBUG = 0x1, unprogrammed default
  7896                           ;	Flash Program Memory Code Protection bit
  7897                           ;	CP = 0x1, unprogrammed default
  7898  2007                     	org	8199
  7899  2007  3FF6               	dw	16374

Data Sizes:
    Strings     113
    Constant    10
    Data        0
    BSS         16
    Persistent  0
    Stack       0

Auto Spaces:
    Space          Size  Autos    Used
    COMMON           14     12      14
    BANK0            80     72      76
    BANK1            80     60      70
    BANK3            96      0       0
    BANK2            96      0       0

Pointer List with Targets:

    sprintf@f	PTR const unsigned char  size(1) Largest target is 15
		 -> STR_6(CODE[15]), STR_5(CODE[15]), STR_4(CODE[15]), STR_3(CODE[15]), 

    sprintf@sp	PTR unsigned char  size(1) Largest target is 20
		 -> Lcd_Padrao@buffer(BANK1[20]), 

    sprintf@ap	PTR void [1] size(1) Largest target is 2
		 -> ?_sprintf(BANK0[2]), 

    Lcd_Write_String@a	PTR unsigned char  size(2) Largest target is 20
		 -> STR_12(CODE[9]), STR_11(CODE[17]), STR_10(CODE[16]), STR_9(CODE[14]), 
		 -> STR_8(CODE[16]), STR_7(CODE[14]), Lcd_Padrao@buffer(BANK1[20]), STR_2(CODE[13]), 
		 -> STR_1(CODE[14]), 


Critical Paths under _main in COMMON

    None.

Critical Paths under _tes in COMMON

    _tes->i1_Lcd_Write_String
    i1_Lcd_Write_String->i1_Lcd_Write_Char
    i1_Lcd_Write_Char->i1_Lcd_Port
    i1_Lcd_Set_Cursor->i1_Lcd_Cmd
    i1_Lcd_Clear->i1_Lcd_Cmd
    i1_Lcd_Cmd->i1_Lcd_Port

Critical Paths under _main in BANK0

    ___flge->_PesoCambuca
    ___flge->_PesoEstoque
    _Lcd_Padrao->___awdiv
    _sprintf->___lwmod
    ___lwmod->___lwdiv
    ___fltol->___fldiv
    ___flmul->_PesoCambuca
    ___flmul->_PesoEstoque
    ___fldiv->___flmul
    ___awdiv->___fltol
    _PesoEstoque->___xxtofl
    _PesoCambuca->___xxtofl
    _Lcd_Write_String->_Lcd_Write_Char
    _Lcd_Write_Char->_Lcd_Port
    _Lcd_Set_Cursor->_Lcd_Cmd
    _Lcd_Clear->_Lcd_Cmd
    _Lcd_Init->_Lcd_Cmd
    _Lcd_Cmd->_Lcd_Port

Critical Paths under _tes in BANK0

    None.

Critical Paths under _main in BANK1

    _main->_Lcd_Padrao
    _Lcd_Padrao->___awdiv
    ___fltol->___fldiv
    ___awdiv->___fltol

Critical Paths under _tes in BANK1

    None.

Critical Paths under _main in BANK3

    None.

Critical Paths under _tes in BANK3

    None.

Critical Paths under _main in BANK2

    None.

Critical Paths under _tes in BANK2

    None.

Call Graph Tables:

 ---------------------------------------------------------------------------------
 (Depth) Function   	        Calls       Base Space   Used Autos Params    Refs
 ---------------------------------------------------------------------------------
 (0) _main                                                 3     3      0   15962
                                             57 BANK1      3     3      0
                          _Lcd_Clear
                           _Lcd_Init
                         _Lcd_Padrao
                     _Lcd_Set_Cursor
                   _Lcd_Write_String
                        _PesoCambuca
                        _PesoEstoque
                             ___flge
 ---------------------------------------------------------------------------------
 (1) ___flge                                              12     4      8    1094
                                             30 BANK0     12     4      8
                        _PesoCambuca (ARG)
                        _PesoEstoque (ARG)
 ---------------------------------------------------------------------------------
 (1) _Lcd_Padrao                                          27    27      0   11198
                                             30 BANK1     27    27      0
                          _Lcd_Clear
                     _Lcd_Set_Cursor
                   _Lcd_Write_String
                        _PesoCambuca
                        _PesoEstoque
                            ___awdiv
                            ___fldiv
                            ___flmul
                            ___fltol
                            _sprintf
 ---------------------------------------------------------------------------------
 (2) _sprintf                                             21    18      3    1583
                                             18 BANK0     13    10      3
                            ___lwdiv
                            ___lwmod
 ---------------------------------------------------------------------------------
 (3) ___lwmod                                              6     2      4     311
                                             12 BANK0      6     2      4
                            ___lwdiv (ARG)
 ---------------------------------------------------------------------------------
 (3) ___lwdiv                                              8     4      4     314
                                              4 BANK0      8     4      4
 ---------------------------------------------------------------------------------
 (2) ___fltol                                             11     7      4     697
                                             69 BANK0      2     2      0
                                             13 BANK1      9     5      4
                        _PesoCambuca (ARG)
                        _PesoEstoque (ARG)
                            ___fldiv (ARG)
                            ___flmul (ARG)
 ---------------------------------------------------------------------------------
 (2) ___flmul                                             26    18      8    2873
                                             30 BANK0     26    18      8
                        _PesoCambuca (ARG)
                        _PesoEstoque (ARG)
                          __Umul8_16
 ---------------------------------------------------------------------------------
 (3) __Umul8_16                                            9     7      2     799
                                              4 BANK0      9     7      2
 ---------------------------------------------------------------------------------
 (2) ___fldiv                                             26    18      8    1425
                                             56 BANK0     13     5      8
                                              0 BANK1     13    13      0
                        _PesoCambuca (ARG)
                        _PesoEstoque (ARG)
                            ___flmul (ARG)
 ---------------------------------------------------------------------------------
 (2) ___awdiv                                              9     5      4     604
                                             71 BANK0      1     1      0
                                             22 BANK1      8     4      4
                        _PesoCambuca (ARG)
                        _PesoEstoque (ARG)
                            ___flmul (ARG)
                            ___fltol (ARG)
 ---------------------------------------------------------------------------------
 (1) _PesoEstoque                                         12     8      4     497
                                             18 BANK0     12     8      4
                           ___xxtofl
 ---------------------------------------------------------------------------------
 (1) _PesoCambuca                                         12     8      4     497
                                             18 BANK0     12     8      4
                           ___xxtofl
 ---------------------------------------------------------------------------------
 (2) ___xxtofl                                            14    10      4     474
                                              4 BANK0     14    10      4
 ---------------------------------------------------------------------------------
 (1) _Lcd_Write_String                                     7     5      2    1128
                                              9 BANK0      7     5      2
                     _Lcd_Write_Char
 ---------------------------------------------------------------------------------
 (2) _Lcd_Write_Char                                       4     4      0     178
                                              5 BANK0      4     4      0
                           _Lcd_Port
 ---------------------------------------------------------------------------------
 (1) _Lcd_Set_Cursor                                       7     6      1    1240
                                              8 BANK0      7     6      1
                            _Lcd_Cmd
 ---------------------------------------------------------------------------------
 (2) _Lcd_Clear                                            0     0      0     110
                            _Lcd_Cmd
 ---------------------------------------------------------------------------------
 (1) _Lcd_Init                                             2     2      0     198
                                              8 BANK0      2     2      0
                            _Lcd_Cmd
                           _Lcd_Port
 ---------------------------------------------------------------------------------
 (2) _Lcd_Cmd                                              3     3      0     110
                                              5 BANK0      3     3      0
                           _Lcd_Port
 ---------------------------------------------------------------------------------
 (3) _Lcd_Port                                             1     1      0      88
                                              4 BANK0      1     1      0
 ---------------------------------------------------------------------------------
 Estimated maximum stack depth 3
 ---------------------------------------------------------------------------------
 (Depth) Function   	        Calls       Base Space   Used Autos Params    Refs
 ---------------------------------------------------------------------------------
 (5) _tes                                                  4     4      0     862
                                              0 BANK0      4     4      0
                        i1_Lcd_Clear
                   i1_Lcd_Set_Cursor
                 i1_Lcd_Write_String
 ---------------------------------------------------------------------------------
 (6) i1_Lcd_Write_String                                   7     5      2     320
                                              5 COMMON     7     5      2
                   i1_Lcd_Write_Char
 ---------------------------------------------------------------------------------
 (7) i1_Lcd_Write_Char                                     4     4      0     178
                                              1 COMMON     4     4      0
                         i1_Lcd_Port
 ---------------------------------------------------------------------------------
 (6) i1_Lcd_Set_Cursor                                     7     6      1     432
                                              4 COMMON     7     6      1
                          i1_Lcd_Cmd
 ---------------------------------------------------------------------------------
 (6) i1_Lcd_Clear                                          0     0      0     110
                          i1_Lcd_Cmd
 ---------------------------------------------------------------------------------
 (7) i1_Lcd_Cmd                                            3     3      0     110
                                              1 COMMON     3     3      0
                         i1_Lcd_Port
 ---------------------------------------------------------------------------------
 (8) i1_Lcd_Port                                           1     1      0      88
                                              0 COMMON     1     1      0
 ---------------------------------------------------------------------------------
 Estimated maximum stack depth 8
 ---------------------------------------------------------------------------------

 Call Graph Graphs:

 _main (ROOT)
   _Lcd_Clear
     _Lcd_Cmd
       _Lcd_Port
   _Lcd_Init
     _Lcd_Cmd
     _Lcd_Port
   _Lcd_Padrao
     _Lcd_Clear
     _Lcd_Set_Cursor
       _Lcd_Cmd
     _Lcd_Write_String
       _Lcd_Write_Char
         _Lcd_Port
     _PesoCambuca
       ___xxtofl
     _PesoEstoque
       ___xxtofl
     ___awdiv
       _PesoCambuca (ARG)
       _PesoEstoque (ARG)
       ___flmul (ARG)
         _PesoCambuca (ARG)
         _PesoEstoque (ARG)
         __Umul8_16 (ARG)
       ___fltol (ARG)
         _PesoCambuca (ARG)
         _PesoEstoque (ARG)
         ___fldiv (ARG)
           _PesoCambuca (ARG)
           _PesoEstoque (ARG)
           ___flmul (ARG)
         ___flmul (ARG)
     ___fldiv
     ___flmul
     ___fltol
     _sprintf
       ___lwdiv
       ___lwmod
         ___lwdiv (ARG)
   _Lcd_Set_Cursor
   _Lcd_Write_String
   _PesoCambuca
   _PesoEstoque
   ___flge
     _PesoCambuca (ARG)
     _PesoEstoque (ARG)

 _tes (ROOT)
   i1_Lcd_Clear
     i1_Lcd_Cmd
       i1_Lcd_Port
   i1_Lcd_Set_Cursor
     i1_Lcd_Cmd
   i1_Lcd_Write_String
     i1_Lcd_Write_Char
       i1_Lcd_Port

 Address spaces:
Name               Size   Autos  Total    Cost      Usage
BITCOMMON            E      0       0       0        0.0%
EEDATA             100      0       0       0        0.0%
NULL                 0      0       0       0        0.0%
CODE                 0      0       0       0        0.0%
COMMON               E      C       E       1      100.0%
BITSFR0              0      0       0       1        0.0%
SFR0                 0      0       0       1        0.0%
BITSFR1              0      0       0       2        0.0%
SFR1                 0      0       0       2        0.0%
STACK                0      0       0       2        0.0%
ABS                  0      0      A0       3        0.0%
BITBANK0            50      0       0       4        0.0%
BITSFR3              0      0       0       4        0.0%
SFR3                 0      0       0       4        0.0%
BANK0               50     48      4C       5       95.0%
BITSFR2              0      0       0       5        0.0%
SFR2                 0      0       0       5        0.0%
BITBANK1            50      0       0       6        0.0%
BANK1               50     3C      46       7       87.5%
BITBANK3            60      0       0       8        0.0%
BANK3               60      0       0       9        0.0%
BITBANK2            60      0       0      10        0.0%
BANK2               60      0       0      11        0.0%
DATA                 0      0      A0      12        0.0%


Microchip Technology PIC Macro Assembler V2.36 build 20220127204148 
Symbol Table                                                                                   Mon Jul 25 10:18:08 2022

              ___fldiv@aexp 00AC                ___fldiv@bexp 00AB                           pc 0002  
              ___fldiv@sign 00A4                          l70 1552                          l71 1558  
                        l73 1559                          l65 1543                          l66 1544  
                        l67 154A                          l91 162B                          l68 154B  
                        l76 1539                          l69 1551                          l85 17FF  
                        l79 1503                          l88 09A3                          l97 16B3  
              ___awdiv@sign 00BB                          fsr 0004         __Umul8_16@word_mpld 002A  
                       l131 17A7                         l134 1750                         l151 0DF6  
                       l144 0DA1                         l153 0E09                         l163 0ED7  
                       l164 0EE1                         l156 0E30                         l173 0FED  
                       l159 0E3D                         l291 0717                         l703 07EA  
                       l448 0A14                         l472 0B31                         l705 07FC  
                       l481 0AA6                         l473 0B4A                         l730 07D3  
                       l491 0AA6                         l660 0581                         l644 040C  
                       l741 079D                         l469 0AC5                         l742 07A9  
                       l734 0781                         l646 062D                         l567 16F9  
                       l728 073C                         l488 0A8F                         l577 15EE  
                       l666 0601                         l690 02F9                         l668 0619  
                       l684 038D                         l696 0381                         _RC0 0038  
                       _RC2 003A                         _RC4 003C                         _RC5 003D  
                       _RC6 003E                         _RC7 003F                         _tes 08DF  
                       fsr0 0004                         indf 0000                ___flmul@aexp 0050  
              ___flmul@bexp 0051                ___flmul@sign 004B                ___flmul@temp 0056  
              ___flmul@prod 0052                ___fltol@exp1 0066                        l2001 166E  
                      l2003 1673                        l2011 1758                        l2005 168F  
                      l2021 179F                        l2013 1762                        l2007 1697  
                      l2031 1715                        l2015 176C                        l2111 09AB  
                      l2033 171F                        l2025 16FA                        l2017 1776  
                      l2009 1751                        l2121 09C3                        l2113 09B0  
                      l2201 03C0                        l2041 0631                        l3001 0E31  
                      l2035 1729                        l2027 1701                        l2019 1780  
                      l2131 09DD                        l2123 09C5                        l2115 09B2  
                      l2107 09A4                        l2211 03DF                        l2203 03C2  
                      l2043 0636                        l3011 0E5E                        l3003 0E37  
                      l2037 1748                        l2029 170B                        l2141 0A00  
                      l2133 09E1                        l2125 09CB                        l2117 09B6  
                      l2109 09A7                        l2301 059D                        l2221 03FE  
                      l2213 03E5                        l2205 03C4                        l2061 066E  
                      l2045 063C                        l3021 0EBB                        l3013 0E6C  
                      l3005 0E3E                        l2135 09F2                        l2127 09CE  
                      l2143 0A06                        l2119 09BB                        l2311 05E1  
                      l2303 05A1                        l2231 0428                        l2223 0400  
                      l2215 03E8                        l2207 03CE                        l2063 0672  
                      l2047 0643                        l3031 0EE2                        l3023 0EBC  
                      l3007 0E44                        l3015 0E70                        l2145 0A0B  
                      l2137 09F8                        l2129 09D5                        l2321 060F  
                      l2313 05F0                        l2305 05BA                        l2241 0443  
                      l2217 03EF                        l2225 0402                        l2209 03D5  
                      l2401 01ED                        l2081 06A7                        l2065 0676  
                      l3105 065B                        l2057 0649                        l2049 0648  
                      l3041 0F3C                        l3033 0F02                        l3025 0ECB  
                      l3017 0E91                        l3009 0E53                        l2147 0A10  
                      l2139 09F9                        l2323 0613                        l2315 05F4  
                      l2307 05C2                        l2251 048F                        l2243 0461  
                      l2227 0414                        l2235 0431                        l2219 03F4  
                      l2411 02A5                        l2403 021A                        l2331 0034  
                      l2091 06ED                        l2083 06AD                        l2075 0681  
                      l2067 067A                        l2059 0666                        l3051 0F7D  
                      l3043 0F47                        l3035 0F24                        l3027 0ED8  
                      l3019 0EB3                        l2501 0947                        l2317 05FE  
                      l2309 05D1                        l2253 0494                        l2261 04C3  
                      l2245 0479                        l2237 0438                        l2229 0420  
                      l2421 02CA                        l2413 02AE                        l2405 022A  
                      l2341 0049                        l2333 003A                        l2093 06F4  
                      l2085 06B4                        l2069 067F                        l3061 0FA0  
                      l3053 0F85                        l3045 0F55                        l3037 0F2C  
                      l2503 0952                        l2319 060B                        l2271 051B  
                      l2263 04E4                        l2255 04AC                        l2247 0483  
                      l2191 03A1                        l2431 02E2                        l2423 02D3  
                      l2415 02BC                        l2407 0257                        l2351 0066  
                      l2343 0051                        l2335 003E                        l2095 06F8  
                      l2087 06B8                        l2079 069D                        l3063 0FAA  
                      l3055 0F86                        l3039 0F2D                        l3047 0F5A  
                      l2505 0963                        l2281 0537                        l2273 0523  
                      l2265 04E5                        l2257 04B2                        l2249 048D  
                      l2193 03A7                        l2441 0311                        l2433 02F6  
                      l2417 02C5                        l2425 02D9                        l2409 027D  
                      l2361 007D                        l2353 006A                        l2345 0053  
                      l2337 003F                        l2329 002D                        l2089 06BD  
                      l2097 0701                        l3081 0FF0                        l3073 0FC0  
                      l3065 0FB5                        l3057 0F8B                        l3049 0F7C  
                      l2507 0969                        l2291 055A                        l2283 0545  
                      l2275 0525                        l2267 050D                        l2259 04B5  
                      l2195 03AA                        l2187 038E                        l2451 034C  
                      l2443 0315                        l2427 02DD                        l2419 02C9  
                      l2363 007F                        l2355 006B                        l2347 005B  
                      l2339 0044                        l2099 0713                        l3083 0FF6  
                      l3067 0FB9                        l3059 0F95                        l2293 057C  
                      l2277 052E                        l2285 054D                        l2269 0515  
                      l2197 03B1                        l2189 0397                        l2461 0379  
                      l2453 035B                        l2445 032E                        l2437 02FE  
                      l2429 02DE                        l2381 00F0                        l2373 009A  
                      l2365 0087                        l2357 0070                        l2349 0060  
                      l1901 15D7                        l3077 0FE1                        l1831 1556  
                      l1823 153D                        l2287 0553                        l2279 0534  
                      l2199 03B6                        l1911 07D7                        l2463 037A  
                      l2455 0365                        l2439 0303                        l2447 0334  
                      l2391 016D                        l2383 011C                        l2375 00AA  
                      l2367 008C                        l2359 0075                        l1903 15DD  
                      l3079 0FE9                        l1825 1541                        l1841 1536  
                      l1833 1521                        l2297 0586                        l2289 0556  
                      l1921 07F8                        l1913 07D9                        l2465 0385  
                      l2457 0367                        l2449 0341                        l2393 018A  
                      l2385 0138                        l2377 00B7                        l2369 0091  
                      l1905 15E4                        l2561 0AD9                        l1827 1548  
                      l1835 1522                        l1851 160E                        l1843 15F2  
                      l1931 0734                        l2299 058D                        l1915 07E0  
                      l2459 0375                        l2395 019A                        l2387 0154  
                      l2379 00D4                        l1907 15EA                        l2571 0B47  
                      l2563 0AE1                        l1829 154F                        l1837 1528  
                      l1861 1628                        l1853 1615                        l1845 15FC  
                      l1941 075F                        l1933 0744                        l1925 071B  
                      l1917 07E4                        l2397 01B7                        l2389 015D  
                      l2901 0D57                        l2573 0B49                        l2565 0AE5  
                      l2557 0AA7                        l1839 152B                        l1855 1618  
                      l1847 15FD                        l1951 0793                        l1943 0766  
                      l1927 0720                        l1919 07F3                        l2399 01D0  
                      l2831 0A24                        l1871 16C8                        l1863 16B4  
                      l2911 0D95                        l2903 0D5C                        l2567 0B09  
                      l2559 0ABD                        l1857 161E                        l1849 160B  
                      l1961 07C6                        l1953 0797                        l1945 076A  
                      l1937 074D                        l1929 0724                        l2841 0A53  
                      l1881 16E8                        l1873 16CC                        l1865 16B8  
                      l2905 0D66                        l2569 0B0D                        l2921 0DAF  
                      l2913 0DA2                        l2499 0941                        l1859 1621  
                      l1963 07CA                        l1955 07A1                        l1947 0778  
                      l1939 0752                        l2851 0A63                        l2843 0A57  
                      l2835 0A2F                        l1883 16EF                        l1875 16D0  
                      l1867 16BE                        l1891 15BB                        l2907 0D71  
                      l2931 0DB4                        l2923 0DB0                        l2915 0DA8  
                      l1981 17AB                        l1965 07CB                        l1957 07AB  
                      l1949 0788                        l2861 0A94                        l2845 0A5B  
                      l2853 0A79                        l2837 0A48                        l2829 0A15  
                      l1877 16E1                        l1869 16C1                        l1885 16F5  
                      l1893 15BE                        l2909 0D8B                        l2941 0DC1  
                      l2933 0DB5                        l2925 0DB1                        l2917 0DA9  
                      l1983 17B0                        l1991 17D5                        l1959 07C1  
                      l2863 0A99                        l2839 0A4B                        l1879 16E7  
                      l1895 15C5                        l2871 0BF5                        l2951 0DCA  
                      l2943 0DC4                        l2935 0DB8                        l2927 0DB2  
                      l2919 0DAC                        l1993 17DB                        l1985 17C1  
                      l1897 15C9                        l1889 15B3                        l2881 0C56  
                      l2873 0C0D                        l2865 0B4B                        l2961 0DD3  
                      l2953 0DCB                        l2945 0DC5                        l2937 0DBB  
                      l2929 0DB3                        l1979 14F7                        l1995 17EC  
                      l1987 17C6                        l2859 0A80                        l1899 15CD  
                      l2891 0D1C                        l2883 0C5C                        l2875 0C12  
                      l2867 0BE9                        l2971 0DDF                        l2963 0DD6  
                      l2955 0DCE                        l2947 0DC6                        l2939 0DBC  
                      l1997 17F1                        l1989 17CC                        l2885 0CB2  
                      l2877 0C41                        l2893 0D21                        l2869 0BEF  
                      l2981 0DEF                        l2973 0DE4                        l2965 0DD7  
                      l2957 0DCF                        l2949 0DC7                        l1999 17F7  
                      l2895 0D2D                        l2887 0D08                        l2879 0C4B  
                      l2991 0E0E                        l2983 0DFA                        l2975 0DE7  
                      l2967 0DD8                        l2959 0DD2                        l2897 0D37  
                      l2889 0D0E                        l2993 0E12                        l2985 0DFC  
                      l2977 0DE9                        l2969 0DDA                        l2899 0D3F  
                      l2995 0E17                        l2987 0E01                        l2979 0DEB  
                      l2997 0E21                        l2989 0E0D                        l2999 0E2C  
                      ?_tes 0070                        STR_1 0867                        STR_2 0875  
                      STR_3 084A                        STR_4 083B                        STR_5 084A  
                      STR_6 083B                        STR_7 0859                        STR_8 082B  
                      STR_9 0859                        u2000 07E4                        u2001 07E3  
                      u2020 07F8                        u2021 07F7                        u2110 0797  
                      u2030 0720                        u2111 0796                        u2031 071F  
                      u2015 07EB                        u2120 079D                        u2040 0724  
                      u2121 079C                        u2105 078C                        u2041 0723  
                      u2210 17B0                        u2130 07A1                        u2050 0744  
                      u2211 17AF                        u2131 07A0                        u2051 0743  
                      u3011 01DF                        u2140 07B6                        u3100 02C9  
                      u3012 01E6                        u2300 069C                        u3101 02C8  
                      u3021 020C                        u3013 01ED                        u3005 01B9  
                      u2301 069B                        u2230 17DB                        u2150 07C6  
                      u2070 0765                        u3022 0213                        u2310 06A7  
                      u2231 17DA                        u2151 07C5                        u2071 0764  
                      u3031 0239                        u3023 021A                        u2311 06A6  
                      u2160 07CA                        u3200 035B                        u3120 02DD  
                      u3040 0263                        u3032 0240                        u2320 06AD  
                      u2225 17B8                        u2161 07C9                        u2145 07B1  
                      u2065 0757                        u3201 035A                        u3121 02DC  
                      u3033 0247                        u2321 06AC                        u2305 0698  
                      u2250 167D                        u2090 0787                        u2410 09F2  
                      u3210 0379                        u3130 02E2                        u2330 0701  
                      u2091 0786                        u2411 09F1                        u3211 0378  
                      u3131 02E1                        u3115 02CC                        u3051 026F  
                      u2331 0700                        u2260 16A1                        u3140 02F6  
                      u3060 028B                        u3052 0276                        u2340 0713  
                      u3300 0AE5                        u2245 17E3                        u2085 0779  
                      u2405 09E2                        u3205 0357                        u3141 02F5  
                      u3053 027D                        u3045 025E                        u2341 0712  
                      u3301 0AE4                        u2270 16B3                        u2430 0A06  
                      u2350 09AB                        u3150 02FD                        u2271 16B2  
                      u2431 0A05                        u2415 09EE                        u2351 09AA  
                      u3151 02FC                        u3071 0297                        u4007 0D16  
                      u3311 0AF4                        u2440 0A0B                        u2360 09B6  
                      u2600 03F4                        u3160 0303                        u3072 029E  
                      u2280 063C                        u3320 0B0D                        u3312 0AF5  
                      u4017 1755                        u2441 0A0A                        u2425 09FA  
                      u2361 09B5                        u2601 03F3                        u3161 0302  
                      u3073 02A5                        u3065 0286                        u2281 063B  
                      u3321 0B0C                        u3313 0AFA                        u2370 09CB  
                      u2610 0414                        u3170 0315                        u2290 0676  
                      u3314 0AFB                        u4107 1726                        u4027 175F  
                      u2371 09CA                        u2611 0413                        u3171 0314  
                      u2291 0675                        u3331 0B1C                        u3315 0B00  
                      u1820 1541                        u2700 051B                        u2620 0438  
                      u3180 0324                        u3340 0B47                        u3332 0B1D  
                      u3316 0B01                        u1821 1540                        u4117 1612  
                      u4037 1769                        u2701 051A                        u2621 0437  
                      u3085 02A7                        u3341 0B46                        u3333 0B22  
                      u1830 1548                        u2390 09E1                        u2710 0523  
                      u2630 0494                        u2550 03A7                        u3190 0341  
                      u1910 16E1                        u3334 0B23                        u1831 1547  
                      u4127 1625                        u4047 1773                        u2391 09E0  
                      u2711 0522                        u2631 0493                        u2551 03A6  
                      u3191 0340                        u3095 02BE                        u1911 16E0  
                      u3335 0B28                        u1840 154F                        u2800 05A1  
                      u2560 03B1                        u3336 0B29                        u3280 0ABD  
                      u1841 154E                        u4137 094D                        u4057 177D  
                      u2385 09CF                        u2801 05A0                        u2561 03B0  
                      u3185 031F                        u1905 16D1                        u3345 0B43  
                      u3281 0ABC                        u1850 1556                        u2810 05B0  
                      u2730 0534                        u2570 03B6                        u1930 16F5  
                      u3290 0AD9                        u1851 1555                        u4147 095E  
                      u4067 16FE                        u2731 0533                        u2571 03B5  
                      u3195 033D                        u1931 16F4                        u1915 16DD  
                      u3291 0AD8                        u2820 05D1                        u2660 04B2  
                      u2580 03E5                        u2900 0075                        u3700 0A7F  
                      u1940 15BB                        u4157 096F                        u4077 1708  
                      u2821 05D0                        u2725 0527                        u2661 04B1  
                      u2645 0498                        u2581 03E4                        u2901 0074  
                      u3701 0A7E                        u1925 16E9                        u1941 15BA  
                      u2830 05F0                        u2750 0553                        u2590 03EF  
                      u2910 008C                        u1870 16BE                        u4167 1531  
                      u4087 1712                        u2831 05EF                        u2815 05AB  
                      u2751 0552                        u2655 04A5                        u2591 03EE  
                      u2911 008B                        u1871 16BD                        u2840 060F  
                      u2760 055A                        u2680 04E4                        u2920 0091  
                      u3720 0A94                        u3640 0A24                        u1960 15CD  
                      u3800 0E09                        u1865 1600                        u4097 171C  
                      u2841 060E                        u2825 05CD                        u2761 0559  
                      u2745 053A                        u2681 04E3                        u2921 0090  
                      u3721 0A93                        u3641 0A23                        u1961 15CC  
                      u3801 0E08                        u2770 057C                        u2690 0509  
                      u2850 003E                        u3730 0A99                        u3650 0A3F  
                      u1890 16D0                        u1970 15D7                        u3810 0E0D  
                      u2835 05EC                        u2771 057B                        u2675 04B8  
                      u2931 00E2                        u2851 003D                        u3731 0A98  
                      u3715 0A84                        u1891 16CF                        u1971 15D6  
                      u1955 15BF                        u3811 0E0C                        u2780 0585  
                      u2932 00E9                        u2860 0044                        u3660 0A5B  
                      u3740 0BEF                        u3900 0F24                        u3820 0E37  
                      u2781 0584                        u2685 04E0                        u2941 00FE  
                      u2933 00F0                        u2861 0043                        u3661 0A5A  
                      u1885 16C2                        u3741 0BEE                        u3901 0F23  
                      u3821 0E36                        u2790 058D                        u2942 0105  
                      u2870 0049                        u3670 0A62                        u1990 15EA  
                      u3750 0BF5                        u3910 0F2C                        u3830 0E3D  
                      u2791 058C                        u2695 04F2                        u2951 012A  
                      u2943 010C                        u2871 0048                        u3671 0A61  
                      u3655 0A3A                        u1991 15E9                        u1975 15D3  
                      u3751 0BF4                        u3911 0F2B                        u3831 0E3C  
                      u2696 04F5                        u2952 0131                        u2880 006A  
                      u3760 0D0E                        u3920 0F7C                        u3840 0E44  
                      u2697 04FC                        u2961 0146                        u2953 0138  
                      u2881 0069                        u1985 15DE                        u3761 0D0D  
                      u3921 0F7B                        u3841 0E43                        u2698 04FF  
                      u2962 014D                        u2890 0070                        u3690 0A78  
                      u3770 0D2D                        u3930 0FBF                        u3850 0E91  
                      u2699 0506                        u2963 0154                        u2891 006F  
                      u3691 0A77                        u3771 0D2C                        u3931 0FBE  
                      u3851 0E90                        u3780 0D37                        u3940 0FE0  
                      u3860 0EB3                        u2981 017C                        u3685 0A64  
                      u3781 0D36                        u3941 0FDF                        u3861 0EB2  
                      i1l70 1574                        u2982 0183                        u3950 0FE9  
                      u3870 0EBB                        u3790 0DFA                        i1l71 157A  
                      u2991 01A9                        u2983 018A                        u2975 0156  
                      u3775 0D29                        u3951 0FE8                        u3871 0EBA  
                      u3791 0DF9                        u2992 01B0                        u3960 0FED  
                      u3880 0EE0                        i1l73 157B                        i1l65 1563  
                      u2993 01B7                        u3785 0D33                        u3961 0FEC  
                      u3881 0EDF                        i1l66 1566                        u3970 0FF6  
                      u3890 0F02                        i1l67 156C                        i1l91 15B2  
                      u3971 0FF5                        u3891 0F01                        i1l68 156D  
                      i1l76 151D                        i1l69 1573                        i1l85 08DE  
                      i1l79 14F6                        i1l97 166D                        u3987 0E66  
                      u3997 0F4F           ?_Lcd_Write_String 0029                        _main 0DA2  
                      btemp 007E                        start 0012          ??_Lcd_Write_String 002B  
           ___fldiv@new_exp 00A5             __end_of_Lcd_Cmd 153A                       ??_tes 0020  
                _Lcd_Padrao 0B4B               ___fltol@sign1 0065                       ?_main 0070  
           __end_of___fldiv 062E             __end_of___awdiv 0A15                       STR_10 082B  
                     STR_11 081A                       STR_12 0882             __end_of___flmul 038E  
           __end_of___fltol 0AA7             ___awdiv@divisor 00B6             __end_of___lwdiv 16FA  
                     i1l124 0900                       i1l128 0934             __end_of___lwmod 15EF  
         ?i1_Lcd_Set_Cursor 0074             ___awdiv@counter 00BA                       _TMR1H 000F  
                     _TMR1L 000E            Lcd_Padrao@buffer 00C1                       _PORTA 0005  
                     _PORTB 0006                       _PORTC 0007                       _PORTD 0008  
                     _TRISA 0085                       _TRISB 0086                       _TRISC 0087  
                     _TRISD 0088                 ?i1_Lcd_Port 0070          ??i1_Lcd_Set_Cursor 0075  
           __end_of_dpowers 081A                       _conta 007C                       _valor 00E2  
                     pclath 000A                       status 0003                       wtemp0 007E  
           __end_of_sprintf 0718               ??_PesoCambuca 0036            __end_of_Lcd_Init 09A4  
          __end_of_Lcd_Port 155A             __initialization 0015                __end_of_main 1000  
             ??_PesoEstoque 0036                      ??_main 00D9                      _ADRESH 001E  
                    _ADRESL 009E            ___awdiv@dividend 00B8                      i1l2601 162F  
                    i1l2603 164B                      i1l2611 08DF                      i1l2605 1651  
                    i1l2621 08F9                      i1l2613 08E3                      i1l2471 1508  
                    i1l2631 091D                      i1l2623 08FB                      i1l2615 08E4  
                    i1l2473 150E                      i1l2481 1587                      i1l2633 092E  
                    i1l2625 0904                      i1l2617 08EF                      i1l2475 1511  
                    i1l2491 15A2                      i1l2483 158A                      i1l2627 0907  
                    i1l2619 08F6                      i1l2477 151A                      i1l2469 1505  
                    i1l2581 0893                      i1l2493 15A8                      i1l2485 1598  
                    i1l2629 0914                      i1l2591 08BC                      i1l2583 08A4  
                    i1l2495 15AB                      i1l2487 159B                      i1l2479 157D  
                    i1l2577 14EA                      i1l2593 08CD                      i1l2585 08A9  
                    i1l2497 15AF                      i1l2489 159F                      i1l1971 155F  
                    i1l2595 08D2                      i1l2587 08AF                      i1l2579 088E  
                    i1l1973 156A                      i1l2597 08D8                      i1l2589 08B6  
                    i1l1975 1571                      i1l2599 162C                      u220_20 1578  
                    i1l1977 1578                      u220_21 1577                      i1l1969 155B  
                    u217_20 155F                      u217_21 155E                      u218_20 156A  
                    u218_21 1569                      u322_25 158D                      u219_20 1571  
                    u219_21 1570                      u340_20 165B                      u341_20 166D  
                    u341_21 166C                      u342_20 08E3                      u342_21 08E2  
                    u335_20 0893                      u343_20 08F6                      u335_21 0892  
                    u343_21 08F5                      u344_20 0904                      u344_21 0903  
                    u336_25 089B                      u337_20 08BC                      u337_21 08BB  
                    u417_27 159D                      u338_25 08C4                      u418_27 15AD  
                    u339_20 1639                      u419_27 1515           ?i1_Lcd_Write_Char 0070  
                 ??_Lcd_Cmd 0025                      _TMR1IF 0060                ?i1_Lcd_Clear 0070  
          __end_of___xxtofl 07D4          ??i1_Lcd_Write_Char 0071           __end_ofi1_Lcd_Cmd 151E  
                    ___flge 0AA7           i1Lcd_Write_Char@a 0074           i1Lcd_Write_Char@y 0073  
                 ??___fldiv 0060                   ??___awdiv 0067                   ??___flmul 0046  
       __end_of_PesoCambuca 1751                   ??___fltol 00B1                   ??___lwdiv 0028  
                 ??___lwmod 0030                 ?_Lcd_Padrao 0070            ___awdiv@quotient 00BC  
       __end_of_PesoEstoque 17A8                      saved_w 007E                   ??_sprintf 0035  
           Lcd_Set_Cursor@a 002B             Lcd_Set_Cursor@b 0028             Lcd_Set_Cursor@y 002D  
           Lcd_Set_Cursor@z 002C                  ___flge@ff1 003E                  ___flge@ff2 0042  
              ___xxtofl@arg 002E                ___xxtofl@exp 002D                ___xxtofl@val 0024  
   __end_of__initialization 0029           __end_of_Lcd_Clear 1504                  ___fltol@f1 00AD  
            __pcstackCOMMON 0070              _Lcd_Set_Cursor 17A8              _OPTION_REGbits 0081  
                 ?_Lcd_Init 0070                   ?_Lcd_Port 0070                  __pbssBANK0 0068  
                __pbssBANK1 00DC                 _PesoCambuca 16FA           __end_of__Umul8_16 07FD  
                __pmaintext 0DA2                     ?___flge 003E                 _PesoEstoque 1751  
                __pintentry 0004      __end_of_Lcd_Set_Cursor 1800                   ?___xxtofl 0024  
              ??i1_Lcd_Port 0070                  ??_Lcd_Init 0028                  ??_Lcd_Port 0024  
                __stringtab 0800              _Lcd_Write_Char 15EF                     _Lcd_Cmd 151E  
        __end_ofi1_Lcd_Port 157C                     ___fldiv 038E                     ___awdiv 09A4  
                   ___flmul 002D                     ___fltol 0A15                     ___lwdiv 16B4  
                   ___lwmod 15B3             ?_Lcd_Set_Cursor 0028                     __ptext1 0AA7  
                   __ptext2 0B4B                     __ptext3 062E                     __ptext4 15B3  
                   __ptext5 16B4                     __ptext6 0A15                     __ptext7 002D  
                   __ptext8 07D4                     __ptext9 038E                     _aux_lcd 00E4  
                 _T1CONbits 0010                     _dpowers 0810                  ??___xxtofl 0028  
__end_ofi1_Lcd_Write_String 166E                     _sprintf 062E      __end_of_Lcd_Write_Char 162C  
      end_of_initialization 0029                   Lcd_Port@a 0024             PesoCambuca@peso 003A  
              ??_Lcd_Padrao 00BE                   i1_Lcd_Cmd 1504                   _PORTBbits 0006  
                 _PORTDbits 0008               ___xxtofl@sign 002C                 ___fldiv@grs 00A7  
               ___fldiv@rem 00A0             ?_Lcd_Write_Char 0070           Lcd_Write_String@a 0029  
         Lcd_Write_String@i 002E                 ___flmul@grs 004C          __end_of_Lcd_Padrao 0DA2  
   Lcd_Padrao@nivel_cambuca 00D5                   _Lcd_Clear 14F7              __end_of___flge 0B4B  
                ?i1_Lcd_Cmd 0070            _Lcd_Write_String 166E     Lcd_Padrao@nivel_estoque 00D7  
       start_initialization 0015                 __end_of_tes 0941            i1_Lcd_Set_Cursor 088D  
              ?_PesoCambuca 0032                  ?_Lcd_Clear 0070                    ??___flge 0046  
              ?_PesoEstoque 0032                   __Umul8_16 07D4             Lcd_Write_Char@a 0028  
           Lcd_Write_Char@y 0027                   ___fldiv@a 0058                   ___fldiv@b 005C  
                 ___flmul@a 0042                   ___flmul@b 003E                 __pbssCOMMON 007C  
                 ___latbits 0002               __pcstackBANK0 0020               __pcstackBANK1 00A0  
      i1Lcd_Write_Char@temp 0072                    ?_Lcd_Cmd 0070                 sprintf@flag 0039  
               sprintf@prec 003A            ___lwdiv@dividend 0026            ??_Lcd_Set_Cursor 0029  
                  ?___fldiv 0058                    ?___awdiv 00B6                    ?___flmul 003E  
                  ?___fltol 00AD                  ?__Umul8_16 0024                    ?___lwdiv 0024  
                  ?___lwmod 002C            i1_Lcd_Write_Char 157C                 ??i1_Lcd_Cmd 0071  
      i1Lcd_Set_Cursor@temp 007A                   __pstrings 0800                   _aux_aviso 00DC  
                 _aux_timer 006A            ___lwdiv@quotient 0029                    ?_sprintf 0032  
         interrupt_function 0004               ??i1_Lcd_Clear 0074                    _PIE1bits 008C  
        i1_Lcd_Write_String 162C                    Lcd_Cmd@a 0027                    _PIR1bits 000C  
               ??_Lcd_Clear 0028         ?i1_Lcd_Write_String 0075                  _ADCON0bits 001F  
               __stringbase 080F                  _ADCON1bits 009F            ??_Lcd_Write_Char 0025  
               _aux_cambuca 00E0                    _Lcd_Init 0941                    _Lcd_Port 153A  
      ??i1_Lcd_Write_String 0077    __end_of_Lcd_Write_String 16B4                 _aux_estoque 00DE  
       __end_ofi1_Lcd_Clear 14F7                 ??__Umul8_16 0026          __end_of__stringtab 0810  
  __end_ofi1_Lcd_Set_Cursor 08DF                  sprintf@val 003B                    ___xxtofl 0718  
           ___lwdiv@divisor 0024           i1Lcd_Set_Cursor@a 0077           i1Lcd_Set_Cursor@b 0074  
         i1Lcd_Set_Cursor@y 0079           i1Lcd_Set_Cursor@z 0078             ___lwdiv@counter 002B  
                  __ptext10 09A4                    __ptext11 1751                    __ptext20 153A  
                  __ptext12 16FA                    __ptext21 08DF                    __ptext13 0718  
                  __ptext22 162C                    __ptext14 166E                    __ptext23 157C  
                  __ptext15 15EF                    __ptext24 088D                    __ptext16 17A8  
                  __ptext25 14EA                    __ptext17 14F7                    __ptext26 1504  
                  __ptext18 0941                    __ptext27 155A                    __ptext19 151E  
               i1Lcd_Port@a 0070                 _interrupcao 0068         i1Lcd_Write_String@a 0075  
       i1Lcd_Write_String@i 007A                  _INTCONbits 000B          Lcd_Write_Char@temp 0026  
                  intlevel1 0000                   sprintf@ap 0038    __end_ofi1_Lcd_Write_Char 15B3  
                 sprintf@sp 003D            ___lwmod@dividend 002E                 i1_Lcd_Clear 14EA  
                i1Lcd_Cmd@a 0073                   stringcode 080A          Lcd_Set_Cursor@temp 002E  
    __Umul8_16@multiplicand 0024                  _OPTION_REG 0081                    sprintf@c 003E  
                  sprintf@f 0032             ___lwmod@divisor 002C             ___lwmod@counter 0031  
                i1_Lcd_Port 155A                    stringdir 080A                    stringtab 0800  
           PesoEstoque@peso 003A        __Umul8_16@multiplier 002C           __Umul8_16@product 0028  
